(lp1
VRT
p2
aV@fckyeahsehoon:
p3
aVCurrent
p4
aVVoting
p5
aVResults
p6
aVby
p7
aVCountry
p8
aV-
aV[OTHER]
p9
aV#1
p10
aVSuper
p11
aVJunior
p12
aV:
aV27%
p13
aV;
aV#2
p14
aVGirls'
p15
aVGeneration_TTS
p16
aV:
aV16%
p17
aV;
aV#3
p18
aVBig
p19
aVBang
p20
aV:
aV9%
p21
aV;
aV#4
p22
aVB.A.P
p23
aV:
aV9%
p24
aVRT
p25
aV@MOAArena:
p26
aVSpot
p27
aVthe
p28
aVscene
p29
aVat
p30
aVthe
p31
aVBig
p32
aVBang
p33
aVmerch
p34
aVbooth!
p35
aV#BigBangatMOAArena
p36
aVhttp://t.co/kiPshrxZ
p37
aVNP:Bad
p38
aVBoy
p39
aVby
p40
aVBIG
p41
aVBANG
p42
aV#aaaaaaah
p43
aVRT
p44
aV@happeesy:
p45
aVBig
p46
aVBang
p47
aVUpdate:
p48
aVGA
p49
aVSold
p50
aVout
p51
aVas
p52
aVin,
p53
aVeven
p54
aVSRO
p55
aVsold
p56
aVout
p57
aV@_Maral
p58
aVoh
p59
aVyeahhh!!!!
p60
aVJust
p61
aVwoke
p62
aVup,
p63
aVgoing
p64
aVfor
p65
aVa
aVjog
p66
aVthen
p67
aVshower
p68
aVn
aVfood
p69
aVthen
p70
aVI
aVcome
p71
aVonline
p72
aV:D
p73
aVBIG
p74
aVBANG!!!!!
p75
aVAlways
p76
aVcome
p77
aVhome
p78
aVto
p79
aVbig
p80
aVbang
p81
aVsongs
p82
aVplaying
p83
aVon
p84
aVthe
p85
aVtv
p86
aV\u263a
aVRT
p87
aV@MOAArena:
p88
aVSpot
p89
aVthe
p90
aVscene
p91
aVat
p92
aVthe
p93
aVBig
p94
aVBang
p95
aVmerch
p96
aVbooth!
p97
aV#BigBangatMOAArena
p98
aVhttp://t.co/kiPshrxZ
p99
aVI
aVonly
p100
aVhave
p101
aVtwo
p102
aVthings
p103
aVon
p104
aVmy
p105
aVChristmas
p106
aVlist
p107
aVthough...
p108
aVbig
p109
aVbang
p110
aVtheory
p111
aVand
p112
aVmade
p113
aVin
p114
aVchelsea
p115
aVbox
p116
aVsets
p117
aVlol
p118
aVsaddoooo
p119
aVThe
p120
aVbig
p121
aVbig
p122
aVbang,
p123
aVthe
p124
aVreason
p125
aVI'm
p126
aValive,
p127
aVwhen
p128
aVall
p129
aVthe
p130
aVstars
p131
aVcollide,
p132
aVin
p133
aVthis
p134
aVuniverse
p135
aVinside.
p136
aVThe
p137
aVbig
p138
aVbig
p139
aVbang.
p140
aVRT
p141
aV@chardinas:
p142
aVGen
p143
aVad
p144
aVtix
p145
aVfoe
p146
aVbig
p147
aVbang
p148
aVon
p149
aVsale!!!
p150
aVDm
p151
aVme
p152
aVRT
p153
aV@_MCLL:
p154
aV[TRANS]
p155
aV"2NE1
p156
aVmember
p157
aVSandara
p158
aVPark
p159
aVis
p160
aVexcited
p161
aVto
p162
aVwatch
p163
aVBig
p164
aVBang's
p165
aVconcert
p166
aVlater
p167
aVtonight.
p168
aVShe's
p169
aVhere
p170
aVto
p171
aVsupport
p172
aVthe
p173
aVKorean
p174
aVboyband."
p175
aVRT
p176
aV@just_juliie:
p177
aVOverheard:
p178
aVBig
p179
aVBang
p180
aVtalking
p181
aVto
p182
aVladies
p183
aV-
aVGD:
p184
aVHey
p185
aVgirl,
p186
aVwanna
p187
aVride
p188
aVmy
p189
aVdragon?
p190
aV;3
p191
aV(success
p192
aVrate:
p193
aV80%)
p194
aVhttp://t.co/M5pJtWB1
p195
aVRT
p196
aV@seoulfm:
p197
aVNow
p198
aVPlaying
p199
aV::
p200
aVBig
p201
aVBang
p202
aV-
aVLast
p203
aVFarewell
p204
aVon
p205
aVSEOULFM!
p206
aVListen
p207
aVat
p208
aVhttp://t.co/5ZC6kA9w
p209
aV#seoulfm
p210
aV#kpop
p211
aVListening
p212
aVto
p213
aVBig
p214
aVBang's
p215
aVBad
p216
aVBoy,
p217
aVthinking
p218
aVof
p219
aVwhat
p220
aVI'm
p221
aVmissing
p222
aVat
p223
aVSM
p224
aVMOA
p225
aVArena
p226
aVnow...
p227
aVTOP
p228
aV...
p229
aVTaeyang
p230
aV...
p231
aVGD
p232
aV...\u2665
p233
aV"The
p234
aV"My
p235
aVGirl"
p236
aVmusic
p237
aVvideo
p238
aVby
p239
aVBIG
p240
aVBANG's
p241
aVTaeyang
p242
aVis
p243
aVa
aVMODERN
p244
aVDAY
p245
aVMINSTREL
p246
aVSHOW"
p247
aVthis
p248
aVstill
p249
aVmakes
p250
aVme
p251
aVlaff
p252
aVso
p253
aVmuch
p254
aVCurrent
p255
aVVoting
p256
aVResults
p257
aVby
p258
aVCountry
p259
aV-
aV[OTHER]
p260
aV#1
p261
aVSuper
p262
aVJunior
p263
aV:
aV27%
p264
aV;
aV#2
p265
aVGirls'
p266
aVGeneration_TTS
p267
aV:
aV16%
p268
aV;
aV#3
p269
aVBig
p270
aVBang
p271
aV:
aV9%
p272
aV;
aV#4
p273
aVB.A.P
p274
aV:
aV9%
p275
aVRT
p276
aV@seoulfm:
p277
aVNow
p278
aVPlaying
p279
aV::
p280
aVBig
p281
aVBang
p282
aV-
aVLast
p283
aVFarewell
p284
aVon
p285
aVSEOULFM!
p286
aVListen
p287
aVat
p288
aVhttp://t.co/5ZC6kA9w
p289
aV#seoulfm
p290
aV#kpop
p291
aVbecause
p292
aVthe
p293
aVkid
p294
aVdidn't
p295
aVsaid
p296
aVit
p297
aVlike
p298
aVthat..
p299
aVhe
p300
aVsaid
p301
aVnow..
p302
aVhe
p303
aVlikes
p304
aVPSY
p305
aVmore
p306
aVthan
p307
aVbig
p308
aVbang..
p309
aVdidn't
p310
aVmean
p311
aVhe
p312
aVdoesn't
p313
aVlike
p314
aVbig
p315
aVbang
p316
aVanymore..
p317
aVWatching
p318
aVsoooo
p319
aVmuch
p320
aVBig
p321
aVBang
p322
aVtheory
p323
aVI
aVfeel
p324
aVsmarter
p325
aVMaybe
p326
aVcuz
p327
aVI
aVdon't
p328
aVhave
p329
aVa
aVmore
p330
aVexpensive
p331
aVBig
p332
aVBang
p333
aVticket...
p334
aV\U0001f62d
aVRT
p335
aV@melissaadlina:
p336
aV@FongFeiKei
p337
aVSelling
p338
aVone
p339
aV(1)
p340
aVBig
p341
aVBang
p342
aVAlive
p343
aVTour
p344
aVKL
p345
aVconcert
p346
aVticket
p347
aVCat
p348
aV3
aVRockpit
p349
aVB
aVfor
p350
aVRM
p351
aV490.
p352
aVMention
p353
aVme?
p354
aVTQ
p355
aVDara
p356
aVis
p357
aVgoing
p358
aVto
p359
aVBig
p360
aVBang's
p361
aVconcert?
p362
aVAww!
p363
aVRT
p364
aV@the8tvquickie:
p365
aV#the8tvquickieforbigbang
p366
aVThere
p367
aVwill
p368
aVbe
p369
aVone
p370
aVmore
p371
aVpair
p372
aVof
p373
aVBIG
p374
aVBANG
p375
aVVIP
p376
aVconcert
p377
aVrehearsal
p378
aVpasses
p379
aVto
p380
aVbe
p381
aVgiven
p382
aVaway...
p383
aVhttp://t.co/6uC3KaYc
p384
aVRT
p385
aV@SelisTurkgulu:
p386
aVHow
p387
aVI
aVMet
p388
aVYour
p389
aVMother
p390
aV+
aVThe
p391
aVBig
p392
aVBang
p393
aVTheory
p394
aV+
aVTwo
p395
aVAnd
p396
aVA
aVHalf
p397
aVMen
p398
aV=
aVHOW
p399
aVI
aVBANG
p400
aVYOUR
p401
aVMOTHER
p402
aVWITH
p403
aVTWO
p404
aVMEN.
p405
aVWaking
p406
aVup
p407
aVto
p408
aVpeople
p409
aVgetting
p410
aVBig
p411
aVBang
p412
aVtickets
p413
aV&amp;
p414
aVpeople
p415
aVasking
p416
aVif
p417
aVI
aVwanna
p418
aVgo........
p419
aVBIG
p420
aVBANG
p421
aVFEELS
p422
aVFUCKING
p423
aVBIG
p424
aVBANG
p425
aVMOTHER
p426
aVFUCKER
p427
aVregularshowoooh.gif
p428
aVBusker
p429
aVon
p430
aVArgyll
p431
aVSt
p432
aVhas
p433
aVjust
p434
aVplayed
p435
aVBig
p436
aVBang
p437
aVby
p438
aVBarenaked
p439
aVLadies
p440
aVfollowed
p441
aVby
p442
aVEnd
p443
aVof
p444
aVthe
p445
aVWorld.
p446
aVToo,
p447
aVtoo
p448
aVgood!
p449
aVThe
p450
aVBig
p451
aVBang
p452
aVNot
p453
aVbuying
p454
aVmy
p455
aVbig
p456
aVbang
p457
aVticket
p458
aVjust
p459
aVyet,
p460
aVi'll
p461
aVhustle
p462
aVsomeone
p463
aVlater.
p464
aVI
aVfinished
p465
aVa
aVseason
p466
aVof
p467
aVThe
p468
aVBig
p469
aVBang
p470
aVTheory
p471
aVin
p472
aVa
aVday
p473
aV\U0001f631\U0001f631\U0001f631
p474
aVMy
p475
aVlife
p476
aVsucks
p477
aVhahahaha
p478
aV\U0001f610\U0001f52b
p479
aV@AMFerg87
p480
aV@spacegirlgail
p481
aV@juffery
p482
aV@Gri64
p483
aVAre
p484
aVyou
p485
aVstill
p486
aVreferring
p487
aVto
p488
aVThe
p489
aVBig
p490
aVBang
p491
aVTheory
p492
aVthere,
p493
aVAmanda?!?
p494
aVRT
p495
aV@allkpop:
p496
aVINFINITE\u2019s
p497
aV3D
p498
aVmovie
p499
aVviewers
p500
aVhigher
p501
aVthan
p502
aVSuper
p503
aVJunior,
p504
aVBig
p505
aVBang
p506
aVand
p507
aVB2ST\u2019s
p508
aVmovies
p509
aVhttp://t.co/yzfmOP6J
p510
aVSandara
p511
aVPark
p512
aVTells
p513
aVBig
p514
aVBang
p515
aV---
p516
aVHave
p517
aVFun
p518
aVIn
p519
aVThe
p520
aVPhilippines
p521
aVand
p522
aVTry
p523
aVJollibee
p524
aVSpaghetti
p525
aVhttp://t.co/Ugl45MZ2
p526
aVSHARE&amp;RT
p527
aVBAD
p528
aVBOY
p529
aVBY
p530
aVBIG
p531
aVBANG
p532
aVON
p533
aVTV!
p534
aVAHHHHH
p535
aVNow
p536
aVPlaying
p537
aV::
p538
aVBig
p539
aVBang
p540
aV-
aVLast
p541
aVFarewell
p542
aVon
p543
aVSEOULFM!
p544
aVListen
p545
aVat
p546
aVhttp://t.co/5ZC6kA9w
p547
aV#seoulfm
p548
aV#kpop
p549
aVGot
p550
aVmy
p551
aVtickets
p552
aVto
p553
aVBig
p554
aVBang
p555
aV#happygirl
p556
aVRT
p557
aV@Lawology:
p558
aVJust
p559
aVwant
p560
aVto
p561
aVsay
p562
aVto
p563
aVthe
p564
aVpeople
p565
aVwho
p566
aVare
p567
aVhyping
p568
aVabout
p569
aVBig
p570
aVBang....I
p571
aVmet
p572
aVTOP
p573
aVin
p574
aVperson....coming
p575
aVout
p576
aVof
p577
aVthe
p578
aVtoilets
p579
aVof
p580
aVthe
p581
aVYG
p582
aVbuilding...
p583
aVUGJ
p584
aVJ
aVJDJBSHHDN
p585
aVFUCK
p586
aVYES
p587
aVGOT
p588
aVFUCKING
p589
aVBIG
p590
aVBANG
p591
aVTICKETS
p592
aVAHMAHGGAHHHDND
p593
aVI
aVwant
p594
aVa
aVmiracle
p595
aVto
p596
aVhappen.
p597
aV\U0001f615
aV(More
p598
aVexpensive
p599
aVBig
p600
aVBang
p601
aVticket!)
p602
aV@shinta_mumble
p603
aVlike
p604
aVthis
p605
aVfor
p606
aVfalling
p607
aVin
p608
aVlove
p609
aVwith
p610
aVbig
p611
aVbang..
p612
aVno
p613
aVI
aVshall
p614
aVnot
p615
aVreply
p616
aVsiobhan,
p617
aVits
p618
aVbig
p619
aVbang
p620
aVtheory
p621
aVtime
p622
aVRT
p623
aV@stylesuzi:
p624
aVeeee
p625
aVstill
p626
aVcan't
p627
aVbelieve
p628
aVBig
p629
aVBang
p630
aVare
p631
aVcoming
p632
aVto
p633
aVLondon!
p634
aVThe
p635
aVonly
p636
aVkpop
p637
aVboy
p638
aVband
p639
aVI
aVam
p640
aVa
aVfan
p641
aVof!
p642
aV*fangirl
p643
aVscream*
p644
aV#np
p645
aVBig
p646
aVBang
p647
aV-
aVStill
p648
aVAlive
p649
aVRT
p650
aV@allkpop:
p651
aV\u201cGangnam
p652
aVStyle\u201d
p653
aVMV
p654
aVchild
p655
aVstar
p656
aVHwang
p657
aVMin
p658
aVWoo
p659
aVconfesses
p660
aVhe
p661
aVpreviously
p662
aVliked
p663
aVBig
p664
aVBang
p665
aVmore
p666
aVthan
p667
aVPsy
p668
aVhttp://t.co/qvOaZXWp
p669
aVOmg
p670
aVlayout
p671
aVof
p672
aVBig
p673
aVBang
p674
aVstage
p675
aVhas
p676
aVchanged
p677
aVand
p678
aVnow
p679
aVim
p680
aVsitting
p681
aVright
p682
aVinfront
p683
aVof
p684
aVthem
p685
aVYESSSSSSSSSSSSSSSSSSSSSSSS
p686
aVNooooo!
p687
aVMy
p688
aVhuuuge
p689
aVbig
p690
aVbang
p691
aVtheory
p692
aVposter
p693
aVfell
p694
aVdown!
p695
aVSheldon
p696
aVlooks
p697
aVsad
p698
aV:(
p699
aV@FongFeiKei
p700
aVSelling
p701
aVone
p702
aV(1)
p703
aVBig
p704
aVBang
p705
aVAlive
p706
aVTour
p707
aVKL
p708
aVconcert
p709
aVticket
p710
aVCat
p711
aV3
aVRockpit
p712
aVB
aVfor
p713
aVRM
p714
aV490.
p715
aVMention
p716
aVme?
p717
aVTQ
p718
aVyey
p719
aVfinally
p720
aVis
p721
aVout!!
p722
aVi
aVmust
p723
aVdownload
p724
aVBIG
p725
aVBANG
p726
aVfor
p727
aVapp
p728
aVandroid
p729
aV!!
p730
aVyey
p731
aV!
aV:D
p732
aVRT
p733
aV@Pandelela_R:
p734
aV#IAdmitThat
p735
aVim
p736
aVattracted
p737
aVto
p738
aVu
aV\u2665
aV#Big
p739
aVBang
p740
aV;-)
p741
aVRT
p742
aV@fckyeahsehoon:
p743
aVCurrent
p744
aVVoting
p745
aVResults
p746
aVby
p747
aVCountry
p748
aV-
aV[JEPANG]
p749
aV#1
p750
aVTVXQ
p751
aV:
aV64%
p752
aV;
aV#2
p753
aVSuper
p754
aVJunior
p755
aV:
aV13%
p756
aV;
aV#3
p757
aVEXO-K
p758
aV:
aV3%
p759
aV;
aV#4
p760
aVBig
p761
aVBang
p762
aV:
aV3%
p763
aVRT
p764
aV@Pandelela_R:
p765
aV#IAdmitThat
p766
aVim
p767
aVattracted
p768
aVto
p769
aVu
aV\u2665
aV#Big
p770
aVBang
p771
aV;-)
p772
aVgahhhhh..
p773
aVBIG
p774
aVBANG
p775
aV!!!
p776
aVI
aVwanna
p777
aVwatch
p778
aVit
p779
aVso
p780
aVbadly,,
p781
aVbut
p782
aVI
aVcan't
p783
aVT_____T
p784
aVaaahhh
p785
aVcutie!
p786
aVcamille
p787
aVco
p788
aVwants
p789
aVto
p790
aVwatch
p791
aVbig
p792
aVbang's
p793
aVconcert
p794
aV;w;
p795
aVRT
p796
aV@CLOUDSYESUNG_:
p797
aV(OTHER
p798
aVCOUNTRIES)
p799
aVSuper
p800
aVJunior:
p801
aV27%
p802
aV-
aVTTS:
p803
aV16%
p804
aV-
aVBig
p805
aVBang:
p806
aV9%
p807
aV-
aVBAP:
p808
aV9%
p809
aV[cr:
p810
aVMama
p811
aVoffc
p812
aVpage,v:
p813
aVsiwonestINA]
p814
aVEven
p815
aVBig
p816
aVBang's
p817
aVTotoy
p818
aVdays...
p819
aVOmgg
p820
aVRT
p821
aV@happeesy:
p822
aVBig
p823
aVBang
p824
aVUpdate:
p825
aVGA
p826
aVSold
p827
aVout
p828
aVas
p829
aVin,
p830
aVeven
p831
aVSRO
p832
aVsold
p833
aVout
p834
aV@juffery
p835
aV@Gri64
p836
aV@MarkOfTheRennie
p837
aV@AMFerg87
p838
aVHahaha.
p839
aVPinky
p840
aVpromises.
p841
aVI\u2019ve
p842
aVnever
p843
aVseen
p844
aVthe
p845
aVBig
p846
aVBang
p847
aVtheory.
p848
aVRT
p849
aV@LP2NE1:
p850
aV[INFO]
p851
aVDara
p852
aVis
p853
aVexcited
p854
aVto
p855
aVwatch
p856
aVBig
p857
aVBang's
p858
aVconcert
p859
aVtonight
p860
aVand
p861
aVshe's
p862
aVthere
p863
aVin
p864
aVPH
p865
aVto
p866
aVsupport
p867
aVthem
p868
aVvia
p869
aV@Push_Mina
p870
aVRT
p871
aV@happeesy:
p872
aVBig
p873
aVBang
p874
aVUpdate:
p875
aVGA
p876
aVSold
p877
aVout
p878
aVas
p879
aVin,
p880
aVeven
p881
aVSRO
p882
aVsold
p883
aVout
p884
aVRT
p885
aV@RyanCartwright:
p886
aVSo
p887
aVmuch
p888
aVfun
p889
aVon
p890
aVBig
p891
aVBang
p892
aVtoday!
p893
aVRemember
p894
aVto
p895
aVvote
p896
aVfor
p897
aVObama
p898
aVbecause
p899
aVthe
p900
aVother
p901
aVguy
p902
aVis
p903
aVbat
p904
aVshit
p905
aVcrazy.
p906
aV#MagicUnderpantMormonHomophobeAntiWoman
p907
aVx
aVI
aVwanna
p908
aVgo
p909
aVto
p910
aVBig
p911
aVBang's
p912
aVbut
p913
aVI
aVdon't
p914
aVhave
p915
aVmoney
p916
aV$_$
p917
aV:/
p918
aVI
aVswear
p919
aVto
p920
aVwatch
p921
aVBig
p922
aVBang
p923
aVwhen
p924
aVI
aVgo
p925
aVto
p926
aVKorea!
p927
aVStuck
p928
aVin
p929
aVtraffic
p930
aVhere
p931
aVin
p932
aVMakati.
p933
aV#WhatILoveTheMost
p934
aVBig
p935
aVbang
p936
aVBig
p937
aVBang
p938
aVtickets
p939
aVbooked!
p940
aV15th
p941
aVDecember
p942
aV^____^
p943
aVThe
p944
aVbig
p945
aVbang
p946
aVtheory
p947
aVis
p948
aVactually
p949
aVhilarious!
p950
aVRT
p951
aV@the8tvquickie:
p952
aV#the8tvquickieforbigbang
p953
aVThere
p954
aVwill
p955
aVbe
p956
aVone
p957
aVmore
p958
aVpair
p959
aVof
p960
aVBIG
p961
aVBANG
p962
aVVIP
p963
aVconcert
p964
aVrehearsal
p965
aVpasses
p966
aVto
p967
aVbe
p968
aVgiven
p969
aVaway...
p970
aVhttp://t.co/6uC3KaYc
p971
aV@spacegirlgail
p972
aV@gri64
p973
aV@markoftherennie
p974
aV@amferg87
p975
aVthe
p976
aVbig
p977
aVbang
p978
aVtheory???
p979
aVcan
p980
aVnever
p981
aVget
p982
aVenough
p983
aVof
p984
aVbig
p985
aVbang
p986
aVtheory
p987
aV@ShayneYi
p988
aVyaya
p989
aVu
aVsuper
p990
aVhapi
p991
aVla
p992
aVu..T
p993
aVT
aVRemember
p994
aVto
p995
aVbuy
p996
aVme
p997
aVBIG
p998
aVBANG
p999
aVthing~&gt;&lt;
p1000
aV@Jessiex3Music
p1001
aVListen
p1002
aVto
p1003
aVsome
p1004
aVBig
p1005
aVBang
p1006
aVso
p1007
aVyou
p1008
aVremember
p1009
aVyou're
p1010
aVdoing
p1011
aVit
p1012
aVall
p1013
aVfor
p1014
aVthem
p1015
aV=P
p1016
aVBig
p1017
aVBang
p1018
aVTheory
p1019
aVTV
p1020
aVProgram
p1021
aV-
aVWe
p1022
aVlove
p1023
aVthe
p1024
aVTV
p1025
aVshow
p1026
aVBig
p1027
aVBang
p1028
aVTheory,
p1029
aVwe've
p1030
aVbeen
p1031
aVavid
p1032
aVfans
p1033
aVsince
p1034
aVit
p1035
aVfirst
p1036
aVcame
p1037
aVon...
p1038
aVhttp://t.co/agud6tdi
p1039
aV@vickytoyang
p1040
aVTvN's
p1041
aVlike
p1042
aVhaving
p1043
aVa
aVBig
p1044
aVBang
p1045
aVmusic
p1046
aVvideo
p1047
aVmarathon
p1048
aVright
p1049
aVnow.
p1050
aVGeabe
p1051
aVkau
p1052
aVmakarub
p1053
aVin
p1054
aVthe
p1055
aVface!
p1056
aVI
aVbet
p1057
aVit's
p1058
aVgonna
p1059
aVbe
p1060
aVsoooo
p1061
aVfun!
p1062
aV:(((
p1063
aV\u266c
aVlove
p1064
aVsong
p1065
aVby
p1066
aVBig
p1067
aVBang
p1068
aV#itweetmytunes
p1069
aV#kpop
p1070
aVRT
p1071
aV@_MCL
p1072
aV[TRANS]
p1073
aV"2NE1
p1074
aVmember
p1075
aVSandara
p1076
aVPark
p1077
aVis
p1078
aVexcited
p1079
aVto
p1080
aVwatch
p1081
aVBig
p1082
aVBang's
p1083
aVconcert
p1084
aVlater
p1085
aVtonight.
p1086
aVShe's
p1087
aVhere
p1088
aVto
p1089
aVsupport
p1090
aVthe
p1091
aVKorean
p1092
aVboyband."
p1093
aVNew
p1094
aVartwork
p1095
aVfor
p1096
aVsale!
p1097
aV-
aV"Big
p1098
aVBang"
p1099
aV-
aVhttp://t.co/sI2gjAuL
p1100
aV@fineartamerica
p1101
aVhttp://t.co/vEhSUcsX
p1102
aVIf
p1103
aVi
aVcan't
p1104
aVgo
p1105
aVbig
p1106
aVbang,
p1107
aVi
aVthink
p1108
aVi
aVmight
p1109
aVask
p1110
aVif
p1111
aVi
aVcan
p1112
aVget
p1113
aVmy
p1114
aVnose
p1115
aVpierced
p1116
aVlmao
p1117
aVshe'll
p1118
aVhate
p1119
aVthat
p1120
aVoops
p1121
aVLater!
p1122
aVBig
p1123
aVBang's
p1124
aVConcert.
p1125
aVGotta
p1126
aVWatch
p1127
aV:DD
p1128
aV#KPOP
p1129
aV@fall2pieces247
p1130
aVDDDDDDDDDDDDD8
p1131
aVI
aVINTRODUCE
p1132
aVYOU
p1133
aVTO
p1134
aVBIG
p1135
aVBANG
p1136
aVAND
p1137
aVYOU
p1138
aVGET
p1139
aVTO
p1140
aVSEE
p1141
aVTHEM
p1142
aVBEFORE
p1143
aVI
aVDOOO??????
p1144
aVAND
p1145
aVYOUR
p1146
aVMOM
p1147
aVTOO??????????
p1148
aV*dies*
p1149
aVBig
p1150
aVbang
p1151
aVtheory
p1152
aVseason
p1153
aV6!!
p1154
aVCurrent
p1155
aVVoting
p1156
aVResults
p1157
aVby
p1158
aVCountry
p1159
aV-
aV[JEPANG]
p1160
aV#1
p1161
aVTVXQ
p1162
aV:
aV64%
p1163
aV;
aV#2
p1164
aVSuper
p1165
aVJunior
p1166
aV:
aV13%
p1167
aV;
aV#3
p1168
aVEXO-K
p1169
aV:
aV3%
p1170
aV;
aV#4
p1171
aVBig
p1172
aVBang
p1173
aV:
aV3%
p1174
aV@LP2NE1
p1175
aVsuch
p1176
aVan
p1177
aVFanGirl!
p1178
aVIt's
p1179
aVa
aVwin-win
p1180
aVsituation
p1181
aVfor
p1182
aVher.
p1183
aVVacation
p1184
aVon
p1185
aVher
p1186
aV2nd
p1187
aVhome
p1188
aVand
p1189
aVwatch
p1190
aVBig
p1191
aVBang.
p1192
aVThanks
p1193
aVfor
p1194
aVreplying!!^^
p1195
aVdone
p1196
aVwith
p1197
aVbig
p1198
aVbang
p1199
aVrehearsal
p1200
aVsooo
p1201
aVcool!
p1202
aVRT
p1203
aV@stylesuzi:
p1204
aVeeee
p1205
aVstill
p1206
aVcan't
p1207
aVbelieve
p1208
aVBig
p1209
aVBang
p1210
aVare
p1211
aVcoming
p1212
aVto
p1213
aVLondon!
p1214
aVThe
p1215
aVonly
p1216
aVkpop
p1217
aVboy
p1218
aVband
p1219
aVI
aVam
p1220
aVa
aVfan
p1221
aVof!
p1222
aV*fangirl
p1223
aVscream*
p1224
aVRT
p1225
aV@willleoT:
p1226
aV@FongFeiKei
p1227
aVwant
p1228
aVto
p1229
aVexchange
p1230
aVBIG
p1231
aVBANG
p1232
aVTIX
p1233
aVpremier
p1234
aVrockpit
p1235
aVB
aVfor
p1236
aVA
aVif
p1237
aVinterested
p1238
aVfind
p1239
aVme
p1240
aVurgent!!!
p1241
aVif
p1242
aVno
p1243
aVexchange
p1244
aVI'm
p1245
aVselling!!
p1246
aVI've
p1247
aVgot
p1248
aVa
aVticket!
p1249
aVI'M
p1250
aVSEEING
p1251
aVBIG
p1252
aVBANG
p1253
aVIN
p1254
aVREAL
p1255
aVLIFE
p1256
aVomg
p1257
aVI'm
p1258
aVdying
p1259
aVWatching
p1260
aVThe
p1261
aVBig
p1262
aVBang
p1263
aVTheory
p1264
aV:)
p1265
aV@
aVWizard
p1266
aVVip
p1267
aVUEM
p1268
aVhttp://t.co/53XN0x8L
p1269
aV@spacegirlgail
p1270
aV@gri64
p1271
aV@markoftherennie
p1272
aV@amferg87
p1273
aVbizarrely
p1274
aVthe
p1275
aVepisode
p1276
aVof
p1277
aVthe
p1278
aVbig
p1279
aVbang
p1280
aVtheory
p1281
aVI'm
p1282
aVwatching
p1283
aVis
p1284
aVall
p1285
aVabout
p1286
aVpinky
p1287
aVpromises!
p1288
aVRT
p1289
aV@allkpop:
p1290
aV\u201cGangnam
p1291
aVStyle\u201d
p1292
aVMV
p1293
aVchild
p1294
aVstar
p1295
aVHwang
p1296
aVMin
p1297
aVWoo
p1298
aVconfesses
p1299
aVhe
p1300
aVpreviously
p1301
aVliked
p1302
aVBig
p1303
aVBang
p1304
aVmore
p1305
aVthan
p1306
aVPsy
p1307
aVhttp://t.co/qvOaZXWp
p1308
aV[PO
p1309
aV10
p1310
aVNovember]
p1311
aVBig
p1312
aVBang
p1313
aV2012
p1314
aVStill
p1315
aVAlive
p1316
aVSimple
p1317
aVNecklace
p1318
aVOfficial
p1319
aVprice
p1320
aV250rb
p1321
aV(LIMITED!!)
p1322
aVhttp://t.co/9JVX8Dyb
p1323
aV@bbt_leonard
p1324
aVI
aVabsolutely
p1325
aVlove
p1326
aVThe
p1327
aVBig
p1328
aVBang
p1329
aVTheory
p1330
aVRT
p1331
aV@cruci0btch:
p1332
aVMall
p1333
aVOf
p1334
aVAsia
p1335
aVis
p1336
aVthe
p1337
aVworst
p1338
aVplace
p1339
aVto
p1340
aVbe
p1341
aVin
p1342
aVright
p1343
aVnow
p1344
aVif
p1345
aVyou're
p1346
aVnot
p1347
aVgoing
p1348
aVto
p1349
aVBig
p1350
aVBang'a
p1351
aVconcert.
p1352
aVRT
p1353
aV@ruFF_of_South:
p1354
aVGD
p1355
aVn
aVT.O.P
p1356
aVbringing
p1357
aVit
p1358
aVon
p1359
aValongside
p1360
aV@jerrycamisty
p1361
aVn
aV@nigelsparks
p1362
aV.
aVThe
p1363
aVBig
p1364
aVBang
p1365
aVtheory
p1366
aVwith
p1367
aV#ECX
p1368
aV@chrizooi
p1369
aV@
aVhttp://t.co/f0lnnusa
p1370
aV[PO
p1371
aV10
p1372
aVNovember]
p1373
aVBig
p1374
aVBang
p1375
aV2012
p1376
aVStill
p1377
aVAlive
p1378
aVRing
p1379
aVOfficial
p1380
aVall
p1381
aVtype
p1382
aVprice
p1383
aV300rb
p1384
aV(LIMITED!!)
p1385
aVhttp://t.co/8CbqHSnx
p1386
aVIn
p1387
aVbed
p1388
aVwatching
p1389
aVthe
p1390
aVBig
p1391
aVBang
p1392
aVtheory
p1393
aVwith
p1394
aVa
aVbowl
p1395
aVof
p1396
aVlucky
p1397
aVcharms
p1398
aVand
p1399
aVa
aVcup
p1400
aVof
p1401
aVtea,
p1402
aVI
aVreally
p1403
aVdon't
p1404
aVthink
p1405
aVlife
p1406
aVcould
p1407
aVget
p1408
aVany
p1409
aVmore
p1410
aVperfect
p1411
aVRT
p1412
aV@allkpop:
p1413
aV\u201cGangnam
p1414
aVStyle\u201d
p1415
aVMV
p1416
aVchild
p1417
aVstar
p1418
aVHwang
p1419
aVMin
p1420
aVWoo
p1421
aVconfesses
p1422
aVhe
p1423
aVpreviously
p1424
aVliked
p1425
aVBig
p1426
aVBang
p1427
aVmore
p1428
aVthan
p1429
aVPsy
p1430
aVhttp://t.co/qvOaZXWp
p1431
aVThe
p1432
aVbig
p1433
aVbig
p1434
aVbang,
p1435
aVthe
p1436
aVreason
p1437
aVI'm
p1438
aValive,
p1439
aVWhen
p1440
aVall
p1441
aVthe
p1442
aVstars
p1443
aVcollide,
p1444
aVin
p1445
aVthis
p1446
aVuniverse
p1447
aVinside.
p1448
aVThe
p1449
aVbig
p1450
aVbig
p1451
aVbang
p1452
aVThe
p1453
aVbig
p1454
aVbig
p1455
aVbang,
p1456
aVthe
p1457
aVreason
p1458
aVI'm
p1459
aValive,
p1460
aVWhen
p1461
aVall
p1462
aVthe
p1463
aVstars
p1464
aVcollide,
p1465
aVin
p1466
aVthis
p1467
aVuniverse
p1468
aVinside.
p1469
aVThe
p1470
aVbig
p1471
aVbig
p1472
aVbang
p1473
aVRT
p1474
aV@happeesy:
p1475
aVBig
p1476
aVBang
p1477
aVUpdate:
p1478
aVGA
p1479
aVSold
p1480
aVout
p1481
aVas
p1482
aVin,
p1483
aVeven
p1484
aVSRO
p1485
aVsold
p1486
aVout
p1487
aVAng
p1488
aVhere
p1489
aVI
aVam,
p1490
aVeating
p1491
aVice
p1492
aVcream
p1493
aVand
p1494
aVfrustrated
p1495
aVbecause
p1496
aVI
aVcan't
p1497
aVgo
p1498
aVto
p1499
aVBig
p1500
aVBang's
p1501
aVconcert.
p1502
aV:(
p1503
aVRT
p1504
aV@happeesy:
p1505
aVBig
p1506
aVBang
p1507
aVUpdate:
p1508
aVGA
p1509
aVSold
p1510
aVout
p1511
aVas
p1512
aVin,
p1513
aVeven
p1514
aVSRO
p1515
aVsold
p1516
aVout
p1517
aVIn
p1518
aVbed
p1519
aVwatching
p1520
aVbig
p1521
aVbang
p1522
aVtheory,
p1523
aVcbaaa
p1524
aVbeing
p1525
aV@chloebutler22
p1526
aVand
p1527
aV@sophiemagx
p1528
aVright
p1529
aVnow!!
p1530
aVhttp://t.co/6PjbWPoG
p1531
aV[TRANS]
p1532
aV"2NE1
p1533
aVmember
p1534
aVSandara
p1535
aVPark
p1536
aVis
p1537
aVexcited
p1538
aVto
p1539
aVwatch
p1540
aVBig
p1541
aVBang's
p1542
aVconcert
p1543
aVlater
p1544
aVtonight.
p1545
aVShe's
p1546
aVhere
p1547
aVto
p1548
aVsupport
p1549
aVthe
p1550
aVKorean
p1551
aVboyband."
p1552
aVhttp://t.co/Nz60EemN
p1553
aVi
aVreally
p1554
aVwant
p1555
aVto
p1556
aVwatch
p1557
aVbut
p1558
aVunfortunately,
p1559
aVi
aVcan't,
p1560
aVang
p1561
aVlayoo
p1562
aVkasi.
p1563
aVRT
p1564
aV@allkpop:
p1565
aV\u201cGangnam
p1566
aVStyle\u201d
p1567
aVMV
p1568
aVchild
p1569
aVstar
p1570
aVHwang
p1571
aVMin
p1572
aVWoo
p1573
aVconfesses
p1574
aVhe
p1575
aVpreviously
p1576
aVliked
p1577
aVBig
p1578
aVBang
p1579
aVmore
p1580
aVthan
p1581
aVPsy
p1582
aVhttp://t.co/qvOaZXWp
p1583
aVWe
p1584
aVare
p1585
aValways
p1586
aVproud
p1587
aVto
p1588
aVbe
p1589
aVoriginal
p1590
aVand
p1591
aVthus
p1592
aVwe
p1593
aVwill
p1594
aVhave
p1595
aVbig
p1596
aVbang
p1597
aVtickets
p1598
aVto
p1599
aVgive
p1600
aVaway
p1601
aVat
p1602
aVa
aVfew
p1603
aVof
p1604
aVour
p1605
aVevents....
p1606
aVhttp://t.co/ArR4jQVs
p1607
aV\U0001f4cf\U0001f4d0\u2702\u270f\U0001f4d4\U0001f52a
p1608
aVi
aVcan
p1609
aVfinally
p1610
aVwatch
p1611
aVsome
p1612
aVBig
p1613
aVBang
p1614
aVtheory
p1615
aVwhile
p1616
aVdoing
p1617
aVparti
p1618
aVmodeeeeeeeeeel
p1619
aVRT
p1620
aV@the8tvquickie:
p1621
aV#the8tvquickieforbigbang
p1622
aVThere
p1623
aVwill
p1624
aVbe
p1625
aVone
p1626
aVmore
p1627
aVpair
p1628
aVof
p1629
aVBIG
p1630
aVBANG
p1631
aVVIP
p1632
aVconcert
p1633
aVrehearsal
p1634
aVpasses
p1635
aVto
p1636
aVbe
p1637
aVgiven
p1638
aVaway...
p1639
aVhttp://t.co/6uC3KaYc
p1640
aVBig
p1641
aVBang
p1642
aVseats
p1643
aVthat
p1644
aVO2
p1645
aVare
p1646
aVselling
p1647
aVare
p1648
aVcrap,
p1649
aVgot
p1650
aVexcited
p1651
aVfor
p1652
aVnothing
p1653
aV=_=
p1654
aVMall
p1655
aVOf
p1656
aVAsia
p1657
aVis
p1658
aVthe
p1659
aVworst
p1660
aVplace
p1661
aVto
p1662
aVbe
p1663
aVin
p1664
aVright
p1665
aVnow
p1666
aVif
p1667
aVyou're
p1668
aVnot
p1669
aVgoing
p1670
aVto
p1671
aVBig
p1672
aVBang'a
p1673
aVconcert.
p1674
aVRT
p1675
aV@happeesy:
p1676
aVBig
p1677
aVBang
p1678
aVUpdate:
p1679
aVGA
p1680
aVSold
p1681
aVout
p1682
aVas
p1683
aVin,
p1684
aVeven
p1685
aVSRO
p1686
aVsold
p1687
aVout
p1688
aV#bb
p1689
aVLast
p1690
aV2
aVBig
p1691
aVBang
p1692
aVtickets
p1693
aVCAT
p1694
aV7.
p1695
aVRM350
p1696
aVfor
p1697
aV2
aVtix.
p1698
aVNo
p1699
aVFFK
p1700
aV@FongFeiKei
p1701
aVWatching
p1702
aVBig
p1703
aVBang
p1704
aVTheory
p1705
aVand
p1706
aV30
p1707
aVRock
p1708
aVon
p1709
aVthe
p1710
aVsame
p1711
aVday
p1712
aVkeeps
p1713
aVme
p1714
aValive.
p1715
aVRT
p1716
aV@SelisTurkgulu:
p1717
aVHow
p1718
aVI
aVMet
p1719
aVYour
p1720
aVMother
p1721
aV+
aVThe
p1722
aVBig
p1723
aVBang
p1724
aVTheory
p1725
aV+
aVTwo
p1726
aVAnd
p1727
aVA
aVHalf
p1728
aVMen
p1729
aV=
aVHOW
p1730
aVI
aVBANG
p1731
aVYOUR
p1732
aVMOTHER
p1733
aVWITH
p1734
aVTWO
p1735
aVMEN.
p1736
aV#the8tvquickieforbigbang
p1737
aVThere
p1738
aVwill
p1739
aVbe
p1740
aVone
p1741
aVmore
p1742
aVpair
p1743
aVof
p1744
aVBIG
p1745
aVBANG
p1746
aVVIP
p1747
aVconcert
p1748
aVrehearsal
p1749
aVpasses
p1750
aVto
p1751
aVbe
p1752
aVgiven
p1753
aVaway...
p1754
aVhttp://t.co/6uC3KaYc
p1755
aVOk,
p1756
aVgonna
p1757
aVgo
p1758
aVnow
p1759
aVin
p1760
aVa
aVbit
p1761
aVfor
p1762
aVBig
p1763
aVBang's
p1764
aVconcert~
p1765
aVBig
p1766
aVbang
p1767
aVtheory!
p1768
aVDeloitte
p1769
aVAustralia:
p1770
aVDigital
p1771
aVdisruption
p1772
aV-
aVShort
p1773
aVfuse,
p1774
aVbig
p1775
aVbang?
p1776
aVhttp://t.co/VJGy2BLk
p1777
aVvia
p1778
aV@Econsultancy
p1779
aVBig
p1780
aVBang
p1781
aVconcert
p1782
aVat
p1783
aVMall
p1784
aVof
p1785
aVAsia
p1786
aVArena
p1787
aVlater
p1788
aVthis
p1789
aVnight.
p1790
aVHayyy.
p1791
aVEnjoy
p1792
aVthe
p1793
aVshow
p1794
aVVIP'S!!!!!
p1795
aVKainggeettttt.
p1796
aVHahahaha!
p1797
aVSerious?
p1798
aVFor
p1799
aVreal?
p1800
aV:o
p1801
aVRT
p1802
aV@BigBang_MSIA:
p1803
aVTomorrow,
p1804
aVBIG
p1805
aVBANG
p1806
aVWILL
p1807
aVCOME
p1808
aVTO
p1809
aVMALAYSIA!
p1810
aVWHO
p1811
aVWANNA
p1812
aVJOIN
p1813
aVME
p1814
aVTO
p1815
aVSLEEP
p1816
aVOUTSIDE
p1817
aVTHEIR
p1818
aVHOTEL
p1819
aVROOM?
p1820
aV:D
p1821
aVRT
p1822
aV@callmecandyy:
p1823
aVYG
p1824
aVSpecial
p1825
aVon
p1826
aVtvN.
p1827
aVGreat...
p1828
aVJust
p1829
aVgreat.
p1830
aVAll
p1831
aVmy
p1832
aVBig
p1833
aVBang
p1834
aVfeelz
p1835
aVresurfacing.
p1836
aV-.-
p1837
aVRT
p1838
aV@SelisTurkgulu:
p1839
aVHow
p1840
aVI
aVMet
p1841
aVYour
p1842
aVMother
p1843
aV+
aVThe
p1844
aVBig
p1845
aVBang
p1846
aVTheory
p1847
aV+
aVTwo
p1848
aVAnd
p1849
aVA
aVHalf
p1850
aVMen
p1851
aV=
aVHOW
p1852
aVI
aVBANG
p1853
aVYOUR
p1854
aVMOTHER
p1855
aVWITH
p1856
aVTWO
p1857
aVMEN.
p1858
aVFuck
p1859
aVkpop
p1860
aVand
p1861
aVfuck
p1862
aVBig
p1863
aVBang!
p1864
aVRT
p1865
aV@manila_bulletin:
p1866
aVSandara
p1867
aVPark,
p1868
aVBig
p1869
aVBang
p1870
aVgo
p1871
aVto
p1872
aVTagaytay:
p1873
aVIt's
p1874
aVmore
p1875
aVfun
p1876
aVin
p1877
aVthe
p1878
aVPhilippines.
p1879
aV(Left)
p1880
aVBig
p1881
aVBang's
p1882
aVG-Dragon,
p1883
aVTaeyang
p1884
aVand...
p1885
aVhttp://t.co/Xlv8Ya0P
p1886
aVYG
p1887
aVSpecial
p1888
aVon
p1889
aVtvN.
p1890
aVGreat...
p1891
aVJust
p1892
aVgreat.
p1893
aVAll
p1894
aVmy
p1895
aVBig
p1896
aVBang
p1897
aVfeelz
p1898
aVresurfacing.
p1899
aV-.-
p1900
aVBIG
p1901
aVBANG
p1902
aV-
aVTonight
p1903
aVXD
p1904
aVI
aVcould
p1905
aVsit
p1906
aVand
p1907
aVwatch
p1908
aVprograms
p1909
aVlike
p1910
aVfriends,
p1911
aVscrubs
p1912
aVand
p1913
aVthe
p1914
aVbig
p1915
aVbang
p1916
aVtheory
p1917
aVall
p1918
aVday
p1919
aVSo
p1920
aVI'm
p1921
aVforever
p1922
aValone
p1923
aVtonight.
p1924
aVSister
p1925
aVis
p1926
aVwatching
p1927
aVBig
p1928
aVBang
p1929
aVwhile
p1930
aVmy
p1931
aVmom
p1932
aVis
p1933
aVout
p1934
aVfor
p1935
aVchurch.
p1936
aVAll
p1937
aValone
p1938
aVand
p1939
aVmaybe
p1940
aVI
aVcan
p1941
aVinv---
p1942
aV:P
p1943
aVBig
p1944
aVBang
p1945
aVTheory
p1946
aVSeason
p1947
aV6
aV&amp;
p1948
aVRevenge
p1949
aVSeason
p1950
aV2.
p1951
aVRT
p1952
aV@LP2NE1:
p1953
aV[INFO]
p1954
aVDara
p1955
aVis
p1956
aVexcited
p1957
aVto
p1958
aVwatch
p1959
aVBig
p1960
aVBang's
p1961
aVconcert
p1962
aVtonight
p1963
aVand
p1964
aVshe's
p1965
aVthere
p1966
aVin
p1967
aVPH
p1968
aVto
p1969
aVsupport
p1970
aVthem
p1971
aVvia
p1972
aV@Push_Mina
p1973
aVK-Pop's
p1974
aVTough
p1975
aVMaknae's!
p1976
aVhttp://t.co/Qg5W17OY
p1977
aVhttp://t.co/ud8Q2CpD
p1978
aVRT
p1979
aV@DavidJNeal:
p1980
aV#NHL
p1981
aV&amp;
p1982
aV#NHLPA
p1983
aVI've
p1984
aVgot
p1985
aVNFL,
p1986
aVNBA,
p1987
aVfriends,
p1988
aVa
aVkid,
p1989
aVher
p1990
aVplaydates
p1991
aV&amp;
p1992
aVa
aVDVR
p1993
aVfull
p1994
aVof
p1995
aVBig
p1996
aVBang
p1997
aVTheory
p1998
aVeps.
p1999
aVYou
p2000
aVgo
p2001
aVon
p2002
aVwith
p2003
aVyour
p2004
aVlittle
p2005
aVlockout.
p2006
aVK-Pop
p2007
aVIdol
p2008
aVMakeup
p2009
aVTrends:
p2010
aVGuys
p2011
aVWearing
p2012
aVMore
p2013
aVthan
p2014
aVJust
p2015
aVEyeliner
p2016
aVhttp://t.co/NNDPC0dM
p2017
aVhttp://t.co/fwZfQejK
p2018
aVRT
p2019
aV@Pandelela_R:
p2020
aV#IAdmitThat
p2021
aVim
p2022
aVattracted
p2023
aVto
p2024
aVu
aV\u2665
aV#Big
p2025
aVBang
p2026
aV;-)
p2027
aVClip
p2028
aVfrom
p2029
aVseason
p2030
aV6:
p2031
aVThe
p2032
aVBig
p2033
aVBang
p2034
aVTheory
p2035
aV-
aVGender
p2036
aVWars:
p2037
aVhttp://t.co/Wggz3FnP
p2038
aVvia
p2039
aV@FongFeiKei
p2040
aVwant
p2041
aVto
p2042
aVexchange
p2043
aVBIG
p2044
aVBANG
p2045
aVTICKETS
p2046
aVpremier
p2047
aVrockpit
p2048
aVB
aVfor
p2049
aVA
aVif
p2050
aVinterested
p2051
aVfind
p2052
aVme
p2053
aVurgent!!!
p2054
aVif
p2055
aVno
p2056
aVexchange
p2057
aVI'm
p2058
aVselling!!!
p2059
aVThe
p2060
aVBig
p2061
aVBang
p2062
aVTheory
p2063
aV-
aVEpisode
p2064
aV6.05
p2065
aV-
aVThe
p2066
aVHolographic
p2067
aVExcitation
p2068
aV-
aVSneak
p2069
aVPeek
p2070
aVhttp://t.co/ZfPyyh8g
p2071
aV@SelinaLYW
p2072
aVPeople
p2073
aVwho
p2074
aVwant
p2075
aVto
p2076
aVbuy
p2077
aVBIG
p2078
aVBANG
p2079
aVtickets??
p2080
aVRT
p2081
aV@TheRealBuzz:
p2082
aVIn
p2083
aVNYC,
p2084
aVthen
p2085
aVDC
p2086
aVtom
p2087
aVbefore
p2088
aVheading
p2089
aVto
p2090
aVGermany
p2091
aVfor
p2092
aVan
p2093
aVappearance.
p2094
aVDon't
p2095
aVforget
p2096
aVto
p2097
aVwatch
p2098
aVme
p2099
aVon
p2100
aVCBS
p2101
aVThe
p2102
aVBig
p2103
aVBang
p2104
aVTheory
p2105
aVthis
p2106
aVThurs
p2107
aVnight
p2108
aVOct
p2109
aV25
p2110
aVRT
p2111
aV@LP2NE1:
p2112
aV[INFO]
p2113
aVDara
p2114
aVis
p2115
aVexcited
p2116
aVto
p2117
aVwatch
p2118
aVBig
p2119
aVBang's
p2120
aVconcert
p2121
aVtonight
p2122
aVand
p2123
aVshe's
p2124
aVthere
p2125
aVin
p2126
aVPH
p2127
aVto
p2128
aVsupport
p2129
aVthem
p2130
aVvia
p2131
aV@Push_Mina
p2132
aVshall
p2133
aVnot
p2134
aVreply
p2135
aVas
p2136
aVbig
p2137
aVbang
p2138
aVtheory
p2139
aVis
p2140
aVon.
p2141
aVgoodbye.
p2142
aVRT
p2143
aV@ABSCBNNews:
p2144
aVSandara
p2145
aVPark
p2146
aVto
p2147
aVguest
p2148
aVat
p2149
aVBig
p2150
aVBang
p2151
aVshow?
p2152
aVhttp://t.co/zB7ND23t
p2153
aVRT
p2154
aV@allkpop:
p2155
aVINFINITE\u2019s
p2156
aV3D
p2157
aVmovie
p2158
aVviewers
p2159
aVhigher
p2160
aVthan
p2161
aVSuper
p2162
aVJunior,
p2163
aVBig
p2164
aVBang
p2165
aVand
p2166
aVB2ST\u2019s
p2167
aVmovies
p2168
aVhttp://t.co/yzfmOP6J
p2169
aVtoo
p2170
aVmany
p2171
aVpeople
p2172
aVat
p2173
aVMOA
p2174
aVon
p2175
aVa
aVweekday.
p2176
aVThey're
p2177
aVnot
p2178
aVall
p2179
aVhere
p2180
aVfor
p2181
aVBig
p2182
aVBang,
p2183
aVright?
p2184
aVRT
p2185
aV@marthapido:
p2186
aVand
p2187
aVthe
p2188
aVri
p2189
aVquestioned
p2190
aVhow
p2191
aVthe
p2192
aVfans
p2193
aVfrom
p2194
aVmany
p2195
aVcountries
p2196
aVknow
p2197
aVabout
p2198
aVBig
p2199
aVBang
p2200
aV~
aVXD
p2201
aVRT
p2202
aV@happeesy:
p2203
aVBig
p2204
aVBang
p2205
aVUpdate:
p2206
aVGA
p2207
aVSold
p2208
aVout
p2209
aVas
p2210
aVin,
p2211
aVeven
p2212
aVSRO
p2213
aVsold
p2214
aVout
p2215
aVPlaying
p2216
aVBig
p2217
aVBang's
p2218
aVFantastic
p2219
aVBaby
p2220
aVas
p2221
aVloud
p2222
aVas
p2223
aVI
aVcan
p2224
aVin
p2225
aVthe
p2226
aVhouse.
p2227
aV#pwedena
p2228
aV#ALIVEGALAXYTOUR
p2229
aV#BIGBANGAliveinManila
p2230
aVRT
p2231
aV@amna_inspirit:
p2232
aVbest
p2233
aVmusic
p2234
aVvideo-
p2235
aVInfinite
p2236
aVtgh
p2237
aVranking
p2238
aVno2
p2239
aVbelakang
p2240
aVbig
p2241
aVbang,need
p2242
aVmore
p2243
aVInspirits
p2244
aVto
p2245
aVvote!
p2246
aVRT
p2247
aV@JaydenStorey2:
p2248
aVThe
p2249
aVBig
p2250
aVBang
p2251
aVtheory,
p2252
aVlove
p2253
aVshledon
p2254
aVI
aVdo
p2255
aVRT
p2256
aV@RyanCartwright:
p2257
aVSo
p2258
aVmuch
p2259
aVfun
p2260
aVon
p2261
aVBig
p2262
aVBang
p2263
aVtoday!
p2264
aVRemember
p2265
aVto
p2266
aVvote
p2267
aVfor
p2268
aVObama
p2269
aVbecause
p2270
aVthe
p2271
aVother
p2272
aVguy
p2273
aVis
p2274
aVbat
p2275
aVshit
p2276
aVcrazy.
p2277
aV#MagicUnderpantMormonHomophobeAntiWoman
p2278
aVx
aVGen
p2279
aVad
p2280
aVtix
p2281
aVfoe
p2282
aVbig
p2283
aVbang
p2284
aVon
p2285
aVsale!!!
p2286
aVDm
p2287
aVme
p2288
aV@V1PERSK1SS
p2289
aVlol
p2290
aVu
aVknow
p2291
aVnu
p2292
aVest
p2293
aVand
p2294
aVbtob
p2295
aVnot
p2296
aVeven
p2297
aVnominated
p2298
aVin
p2299
aVthe
p2300
aVbest
p2301
aVrookie
p2302
aVmale
p2303
aVgrp
p2304
aVthingy!
p2305
aVand
p2306
aVbig
p2307
aVbang's
p2308
aVnot
p2309
aVeven
p2310
aVin
p2311
aVsong
p2312
aVof
p2313
aVthe
p2314
aVyear
p2315
aVD:
p2316
aVWell...I
p2317
aVthink
p2318
aVI
aVjust
p2319
aVmight
p2320
aVbe
p2321
aVgoing
p2322
aVto
p2323
aVsee
p2324
aVBIG
p2325
aVBANG
p2326
aVin
p2327
aVDecember...nothing
p2328
aVbig.
p2329
aVRT
p2330
aV@Kpopers_ngakak:
p2331
aV\u2611
aVBig
p2332
aVBang
p2333
aV(VIP):
p2334
aVVIP
p2335
aVstands
p2336
aVfor
p2337
aV\u201cVery
p2338
aVImportant
p2339
aVPerson\u201d.
p2340
aVIt
p2341
aVwas
p2342
aVnice
p2343
aVseeing
p2344
aVyou
p2345
aVhere,
p2346
aV@vani13mystique
p2347
aVEnjoy
p2348
aVthat
p2349
aVBig
p2350
aVBang
p2351
aVconcert!
p2352
aVHave
p2353
aVa
aVsafe
p2354
aVflight
p2355
aVback
p2356
aVto
p2357
aVCebu
p2358
aVtomorrow!
p2359
aV&gt;:D&lt;
p2360
aVBig
p2361
aVBang
p2362
aVis
p2363
aVexpensive
p2364
aVtho
p2365
aVD:
p2366
aVRT
p2367
aV@PussyMagnetHaz:
p2368
aV"The
p2369
aVbig
p2370
aVbang
p2371
aVtheory
p2372
aVis
p2373
aVstupid"
p2374
aVhttp://t.co/xYU9XZte
p2375
aVBest
p2376
aVMusic
p2377
aVVideo!
p2378
aVBig
p2379
aVBang,
p2380
aVPsy
p2381
aVof
p2382
aVInfinite?
p2383
aVbest
p2384
aVmusic
p2385
aVvideo-
p2386
aVInfinite
p2387
aVtgh
p2388
aVranking
p2389
aVno2
p2390
aVbelakang
p2391
aVbig
p2392
aVbang,need
p2393
aVmore
p2394
aVInspirits
p2395
aVto
p2396
aVvote!
p2397
aV@im_Shiba
p2398
aVwhyyyy?
p2399
aVTomorrow
p2400
aVI
aVmust
p2401
aVgo
p2402
aVde
p2403
aVlah!
p2404
aVNeed
p2405
aVsell
p2406
aVmy
p2407
aVbig
p2408
aVbang
p2409
aVtix
p2410
aV:(
p2411
aVawwww
p2412
aVfuck
p2413
aVI
aVhate
p2414
aVthis.
p2415
aVI
aVwon't
p2416
aVgo
p2417
aVto
p2418
aVBig
p2419
aVBang
p2420
aVtapos
p2421
aVshitloads
p2422
aVof
p2423
aVschool
p2424
aVwork
p2425
aVto
p2426
aVdo
p2427
aVpaaaaaa
p2428
aVfck
p2429
aVtck
p2430
aVBig
p2431
aVBang
p2432
aVconcert
p2433
aVin
p2434
aVtwo
p2435
aVhours
p2436
aVwith
p2437
aV@SeachelSea
p2438
aVRT
p2439
aV@SelisTurkgulu
p2440
aVHow
p2441
aVI
aVMet
p2442
aVYour
p2443
aVMother
p2444
aV+
aVThe
p2445
aVBig
p2446
aVBang
p2447
aVTheory
p2448
aV+
aVTwo
p2449
aVAnd
p2450
aVA
aVHalf
p2451
aVMen
p2452
aV=
aVHOW
p2453
aVI
aVBANG
p2454
aVYOUR
p2455
aVMOTHER
p2456
aVWITH
p2457
aVTWO
p2458
aVMEN.
p2459
aV^^RT
p2460
aV@LP2NE1:
p2461
aV[INFO]
p2462
aVDara
p2463
aVis
p2464
aVexcited
p2465
aVto
p2466
aVwatch
p2467
aVBig
p2468
aVBang's
p2469
aVconcert
p2470
aVtonight
p2471
aVand
p2472
aVshe's
p2473
aVthere
p2474
aVin
p2475
aVPH
p2476
aVto
p2477
aVsupport
p2478
aVthem
p2479
aVvia
p2480
aV@Push_Mina
p2481
aVThis
p2482
aVBig
p2483
aVBang
p2484
aVgalaxy
p2485
aVtour
p2486
aVapp
p2487
aVlooks
p2488
aVpretty
p2489
aVcool
p2490
aVhttp://t.co/SUZrAggY
p2491
aVBig
p2492
aVbang
p2493
aVtheory!!!
p2494
aVRT
p2495
aV@SelisTurkgulu:
p2496
aVHow
p2497
aVI
aVMet
p2498
aVYour
p2499
aVMother
p2500
aV+
aVThe
p2501
aVBig
p2502
aVBang
p2503
aVTheory
p2504
aV+
aVTwo
p2505
aVAnd
p2506
aVA
aVHalf
p2507
aVMen
p2508
aV=
aVHOW
p2509
aVI
aVBANG
p2510
aVYOUR
p2511
aVMOTHER
p2512
aVWITH
p2513
aVTWO
p2514
aVMEN.
p2515
aVTill
p2516
aVdebating
p2517
aVto
p2518
aVgo
p2519
aVBig
p2520
aVBang
p2521
aVconcert..
p2522
aVRT
p2523
aV@SelisTurkgulu:
p2524
aVHow
p2525
aVI
aVMet
p2526
aVYour
p2527
aVMother
p2528
aV+
aVThe
p2529
aVBig
p2530
aVBang
p2531
aVTheory
p2532
aV+
aVTwo
p2533
aVAnd
p2534
aVA
aVHalf
p2535
aVMen
p2536
aV=
aVHOW
p2537
aVI
aVBANG
p2538
aVYOUR
p2539
aVMOTHER
p2540
aVWITH
p2541
aVTWO
p2542
aVMEN.
p2543
aVBig
p2544
aVBang
p2545
aVTheory.
p2546
aVTv
p2547
aVto
p2548
aVmake
p2549
aVme
p2550
aVsmile.
p2551
aVRT
p2552
aV@Kpopers_ngakak:
p2553
aV\u2611
aVBig
p2554
aVBang
p2555
aV(VIP):
p2556
aVVIP
p2557
aVstands
p2558
aVfor
p2559
aV\u201cVery
p2560
aVImportant
p2561
aVPerson\u201d."
p2562
aVRT
p2563
aV@Pandelela_R:
p2564
aV#IAdmitThat
p2565
aVim
p2566
aVattracted
p2567
aVto
p2568
aVu
aV\u2665
aV#Big
p2569
aVBang
p2570
aV;-)
p2571
aV#nw
p2572
aVbig
p2573
aVbang
p2574
aVtheory
p2575
aVseason
p2576
aV6.
p2577
aV#IAdmitThat
p2578
aVI'm
p2579
aVaddicted
p2580
aVto
p2581
aVwatching
p2582
aVthe
p2583
aVbig
p2584
aVbang
p2585
aVtheory.
p2586
aVRT
p2587
aV@Kpopers_ngakak:
p2588
aV\u2611
aVBig
p2589
aVBang
p2590
aV(VIP):
p2591
aVVIP
p2592
aVstands
p2593
aVfor
p2594
aV\u201cVery
p2595
aVImportant
p2596
aVPerson\u201d.
p2597
aV@RobertaLongley
p2598
aVreminds
p2599
aVme
p2600
aVof
p2601
aVsheldon
p2602
aVcooper
p2603
aV(big
p2604
aVbang
p2605
aVtheroy)
p2606
aVwhen
p2607
aVshe
p2608
aVgoes
p2609
aVinto
p2610
aVher
p2611
aVscientific
p2612
aVshizz
p2613
aV;D
p2614
aV@alinaaa17
p2615
aVdo
p2616
aVyou
p2617
aVhave
p2618
aVall
p2619
aVof
p2620
aVBig
p2621
aVBang?
p2622
aVI
aVseriously
p2623
aVdon't
p2624
aVknow
p2625
aVwhich
p2626
aVep
p2627
aVI'm
p2628
aVup
p2629
aVto
p2630
aV\U0001f630\U0001f630\U0001f630\U0001f630
p2631
aV@_BabyLau
p2632
aVmiss
p2633
aVLau!
p2634
aVYou
p2635
aVgoin
p2636
aVto
p2637
aVsee
p2638
aVbig
p2639
aVbang
p2640
aVthen?
p2641
aVMy
p2642
aVTop
p2643
aV3
aV#lastfm
p2644
aVArtists:
p2645
aVG-Dragon
p2646
aV(61),
p2647
aVBIG
p2648
aVBANG
p2649
aV(49)
p2650
aV&amp;
p2651
aVC.N
p2652
aVBlue
p2653
aV(4)
p2654
aV#LastFM
p2655
aVhttp://t.co/5BRAeux4
p2656
aVRT
p2657
aV@LP2NE1:
p2658
aV[INFO]
p2659
aVDara
p2660
aVis
p2661
aVexcited
p2662
aVto
p2663
aVwatch
p2664
aVBig
p2665
aVBang's
p2666
aVconcert
p2667
aVtonight
p2668
aVand
p2669
aVshe's
p2670
aVthere
p2671
aVin
p2672
aVPH
p2673
aVto
p2674
aVsupport
p2675
aVthem
p2676
aVvia
p2677
aV@Push_Mina
p2678
aVRT
p2679
aV@TheBig_Sam:
p2680
aVThe
p2681
aVSaints
p2682
aVgo
p2683
aVmarching
p2684
aVin.
p2685
aVStraight
p2686
aVinto
p2687
aVthe
p2688
aVfist
p2689
aVof
p2690
aVBig
p2691
aVSam's
p2692
aVattacking
p2693
aVsupremacy.
p2694
aVBang.
p2695
aVOn
p2696
aVthe
p2697
aVfloor.
p2698
aVPain.
p2699
aVStars.
p2700
aVConfusion.
p2701
aVDefeat.
p2702
aVRT
p2703
aV@Pandelela_R:
p2704
aV#IAdmitThat
p2705
aVim
p2706
aVattracted
p2707
aVto
p2708
aVu
aV\u2665
aV#Big
p2709
aVBang
p2710
aV;-)
p2711
aV\u201c@allkpop:
p2712
aV\u201cGangnam
p2713
aVStyle\u201d
p2714
aVMV
p2715
aVchild
p2716
aVstar
p2717
aVHwang
p2718
aVMin
p2719
aVWoo
p2720
aVconfesses
p2721
aVhe
p2722
aVpreviously
p2723
aVliked
p2724
aVBig
p2725
aVBang
p2726
aVmore
p2727
aVthan
p2728
aVPsy
p2729
aVhttp://t.co/bAY9eRwm\u201d
p2730
aVsame
p2731
aV^_^
p2732
aVRT
p2733
aV@BigBang_CBS:
p2734
aVWhich
p2735
aVbeloved
p2736
aVduo
p2737
aVwill
p2738
aVmake
p2739
aVan
p2740
aVappearance
p2741
aVon
p2742
aVthis
p2743
aVweek's
p2744
aV#BigBangTheory?
p2745
aVTake
p2746
aVa
aVlook
p2747
aVnow!
p2748
aVhttp://t.co/qsIorW6M
p2749
aVI
aVSHOULD
p2750
aVHAVE
p2751
aVBEEN
p2752
aVIN
p2753
aVMANILA
p2754
aVRIGHT
p2755
aVNOW!!!!!!!!!
p2756
aVWATCHING
p2757
aVBIG
p2758
aVBANG!!!!!!!!!!!!!!
p2759
aV@ahhhhhpeng
p2760
aVi
aVdidn't
p2761
aVlike
p2762
aVNever
p2763
aVGive
p2764
aVUp
p2765
aVall
p2766
aVthat
p2767
aVmuch
p2768
aVbecause
p2769
aVi
aVwas
p2770
aVlike
p2771
aV"wow
p2772
aVbang
p2773
aVwhat
p2774
aVare
p2775
aVu
aVdoing"
p2776
aVI
aVNEVER
p2777
aVKNEW
p2778
aVHE
p2779
aVWAS
p2780
aVA
aVBIG
p2781
aVDUMB
p2782
aVWhen
p2783
aVi
aVget
p2784
aVback,
p2785
aVi
aVthink
p2786
aVi'ma
p2787
aVwatch
p2788
aVme
p2789
aVsome
p2790
aVBig
p2791
aVBang
p2792
aVTheory
p2793
aV\U0001f601
aVBIG
p2794
aVBANG.
p2795
aVSmall
p2796
aVbag.
p2797
aVLOL
p2798
aVMs.
p2799
aVEarth
p2800
aVXD
p2801
aVAh
p2802
aVcrumpets,
p2803
aVhot
p2804
aVchocolate
p2805
aVand
p2806
aVbig
p2807
aVbang
p2808
aVtheory
p2809
aVRT
p2810
aV@happeesy:
p2811
aVBig
p2812
aVBang
p2813
aVUpdate:
p2814
aVGA
p2815
aVSold
p2816
aVout
p2817
aVas
p2818
aVin,
p2819
aVeven
p2820
aVSRO
p2821
aVsold
p2822
aVout
p2823
aVRT
p2824
aV@LP2NE1:
p2825
aV[INFO]
p2826
aVDara
p2827
aVis
p2828
aVexcited
p2829
aVto
p2830
aVwatch
p2831
aVBig
p2832
aVBang's
p2833
aVconcert
p2834
aVtonight
p2835
aVand
p2836
aVshe's
p2837
aVthere
p2838
aVin
p2839
aVPH
p2840
aVto
p2841
aVsupport
p2842
aVthem
p2843
aVvia
p2844
aV@Push_Mina
p2845
aVRT
p2846
aV@shin_MALDiiTA:
p2847
aVRT
p2848
aV@LP2NE1:
p2849
aV[INFO]
p2850
aVDara
p2851
aVis
p2852
aVexcited
p2853
aVto
p2854
aVwatch
p2855
aVBig
p2856
aVBang's
p2857
aVconcert
p2858
aVtonight
p2859
aVand
p2860
aVshe's
p2861
aVthere
p2862
aVin
p2863
aVPH
p2864
aVto
p2865
aVsupport
p2866
aVthem
p2867
aVvia
p2868
aV@Push_Mina
p2869
aVSo,
p2870
aVBig
p2871
aVBang
p2872
aVis
p2873
aVhere
p2874
aVin
p2875
aVManila
p2876
aVfor
p2877
aVa
aVconcert
p2878
aVtonight?!!
p2879
aVI
aVdon't
p2880
aVknow
p2881
aVmuch
p2882
aVabout
p2883
aVthem
p2884
aVand
p2885
aVtheir
p2886
aVsongs
p2887
aVbut
p2888
aVI
aVdo
p2889
aVknow
p2890
aVand
p2891
aVlust
p2892
aVover
p2893
aVTaeyang.
p2894
aV&lt;3
p2895
aV@District3music
p2896
aVone
p2897
aVtree
p2898
aVhill
p2899
aVand
p2900
aVthe
p2901
aVbig
p2902
aVbang
p2903
aVtheory
p2904
aVmarathon
p2905
aVwhilst
p2906
aVI
aVtry
p2907
aVrecover
p2908
aVxx
p2909
aVDeloitte
p2910
aVAustralia:
p2911
aVDigital
p2912
aVdisruption
p2913
aV-
aVShort
p2914
aVfuse,
p2915
aVbig
p2916
aVbang?
p2917
aVhttp://t.co/dmxgfMAS
p2918
aVvia
p2919
aV@Econsultancy
p2920
aVSo...
p2921
aValmost
p2922
aVeveryone
p2923
aVis
p2924
aVon
p2925
aVBig
p2926
aVBang's
p2927
aVconcert
p2928
aVand
p2929
aVI
aVsaw
p2930
aVsome
p2931
aVrecent
p2932
aVphotos
p2933
aVthat
p2934
aVthere
p2935
aVare
p2936
aVjust
p2937
aVa
aVfew
p2938
aVpeople
p2939
aVlining
p2940
aVup
p2941
aVoutside.
p2942
aVRT
p2943
aV@LP2NE1:
p2944
aV[INFO]
p2945
aVDara
p2946
aVis
p2947
aVexcited
p2948
aVto
p2949
aVwatch
p2950
aVBig
p2951
aVBang's
p2952
aVconcert
p2953
aVtonight
p2954
aVand
p2955
aVshe's
p2956
aVthere
p2957
aVin
p2958
aVPH
p2959
aVto
p2960
aVsupport
p2961
aVthem
p2962
aVvia
p2963
aV@Push_Mina
p2964
aVReturn
p2965
aVof
p2966
aVthe
p2967
aVAmerican
p2968
aVSitcom:
p2969
aVNew
p2970
aVGirl,
p2971
aVThe
p2972
aVBig
p2973
aVBang
p2974
aVTheory
p2975
aVand
p2976
aVHow
p2977
aVI
aVMet
p2978
aVYour
p2979
aVMother
p2980
aVhttp://t.co/iBKnOgP4
p2981
aVBig
p2982
aVBang
p2983
aVconcert
p2984
aVin
p2985
aVManila
p2986
aVtonight..T.T
p2987
aVMy
p2988
aVgrandad
p2989
aVis
p2990
aVlaughing
p2991
aVat
p2992
aVThe
p2993
aVBig
p2994
aVBang
p2995
aVTheory,
p2996
aVproof
p2997
aVthat
p2998
aVits
p2999
aVhilarious.
p3000
aVRT
p3001
aV@LP2NE1:
p3002
aV[INFO]
p3003
aVDara
p3004
aVis
p3005
aVexcited
p3006
aVto
p3007
aVwatch
p3008
aVBig
p3009
aVBang's
p3010
aVconcert
p3011
aVtonight
p3012
aVand
p3013
aVshe's
p3014
aVthere
p3015
aVin
p3016
aVPH
p3017
aVto
p3018
aVsupport
p3019
aVthem
p3020
aVvia
p3021
aV@Push_Mina
p3022
aVRT
p3023
aV@LP2NE1:
p3024
aV[INFO]
p3025
aVDara
p3026
aVis
p3027
aVexcited
p3028
aVto
p3029
aVwatch
p3030
aVBig
p3031
aVBang's
p3032
aVconcert
p3033
aVtonight
p3034
aVand
p3035
aVshe's
p3036
aVthere
p3037
aVin
p3038
aVPH
p3039
aVto
p3040
aVsupport
p3041
aVthem
p3042
aVvia
p3043
aV@Push_Mina
p3044
aVRT
p3045
aV@LP2NE1:
p3046
aV[INFO]
p3047
aVDara
p3048
aVis
p3049
aVexcited
p3050
aVto
p3051
aVwatch
p3052
aVBig
p3053
aVBang's
p3054
aVconcert
p3055
aVtonight
p3056
aVand
p3057
aVshe's
p3058
aVthere
p3059
aVin
p3060
aVPH
p3061
aVto
p3062
aVsupport
p3063
aVthem
p3064
aVvia
p3065
aV@Push_Mina
p3066
aVRT
p3067
aV@ANISASEKARRR:
p3068
aVRT
p3069
aV@ForeverVIP_:
p3070
aV121013
p3071
aVSeungri
p3072
aV@
aVBIG
p3073
aVBANG
p3074
aVALIVE
p3075
aVTOUR
p3076
aVINA
p3077
aV[do
p3078
aVnot
p3079
aVedit]
p3080
aVhttp://t.co/flvLznwB
p3081
aViiyak
p3082
aVnlng..iiyak
p3083
aVnalang~~~
p3084
aVno
p3085
aVBig
p3086
aVBang
p3087
aVticket
p3088
aVfor
p3089
aVtonight's
p3090
aVconcert~~(with
p3091
aVtune.
p3092
aVdunno
p3093
aVthe
p3094
aVtitle
p3095
aVof
p3096
aVthe
p3097
aVsong.
p3098
aVI
aVjust
p3099
aVheard
p3100
aVit)
p3101
aVRT
p3102
aV@SelisTurkgulu:
p3103
aVHow
p3104
aVI
aVMet
p3105
aVYour
p3106
aVMother
p3107
aV+
aVThe
p3108
aVBig
p3109
aVBang
p3110
aVTheory
p3111
aV+
aVTwo
p3112
aVAnd
p3113
aVA
aVHalf
p3114
aVMen
p3115
aV=
aVHOW
p3116
aVI
aVBANG
p3117
aVYOUR
p3118
aVMOTHER
p3119
aVWITH
p3120
aVTWO
p3121
aVMEN.
p3122
aV@trangbuix3
p3123
aVOMG!
p3124
aVWhere
p3125
aVare
p3126
aVyou
p3127
aVsitting
p3128
aVfor
p3129
aVthe
p3130
aVBig
p3131
aVBang
p3132
aVconcert?
p3133
aVRT
p3134
aV@ANISASEKARRR:
p3135
aVRT
p3136
aV@ForeverVIP_:
p3137
aV121013
p3138
aVTOP
p3139
aV@
aVBIG
p3140
aVBANG
p3141
aVALIVE
p3142
aVTOUR
p3143
aVINA
p3144
aV[do
p3145
aVnot
p3146
aVedit]
p3147
aVhttp://t.co/vaoMyjoO
p3148
aVRT
p3149
aV@SelisTurkgulu:
p3150
aVHow
p3151
aVI
aVMet
p3152
aVYour
p3153
aVMother
p3154
aV+
aVThe
p3155
aVBig
p3156
aVBang
p3157
aVTheory
p3158
aV+
aVTwo
p3159
aVAnd
p3160
aVA
aVHalf
p3161
aVMen
p3162
aV=
aVHOW
p3163
aVI
aVBANG
p3164
aVYOUR
p3165
aVMOTHER
p3166
aVWITH
p3167
aVTWO
p3168
aVMEN.
p3169
aVRT
p3170
aV@LP2NE1:
p3171
aV[INFO]
p3172
aVDara
p3173
aVis
p3174
aVexcited
p3175
aVto
p3176
aVwatch
p3177
aVBig
p3178
aVBang's
p3179
aVconcert
p3180
aVtonight
p3181
aVand
p3182
aVshe's
p3183
aVthere
p3184
aVin
p3185
aVPH
p3186
aVto
p3187
aVsupport
p3188
aVthem
p3189
aVvia
p3190
aV@Push_Mina
p3191
aVRT
p3192
aV@Pandelela_R:
p3193
aV#IAdmitThat
p3194
aVim
p3195
aVattracted
p3196
aVto
p3197
aVu
aV\u2665
aV#Big
p3198
aVBang
p3199
aV;-)
p3200
aVRT
p3201
aV@SelisTurkgulu:
p3202
aVHow
p3203
aVI
aVMet
p3204
aVYour
p3205
aVMother
p3206
aV+
aVThe
p3207
aVBig
p3208
aVBang
p3209
aVTheory
p3210
aV+
aVTwo
p3211
aVAnd
p3212
aVA
aVHalf
p3213
aVMen
p3214
aV=
aVHOW
p3215
aVI
aVBANG
p3216
aVYOUR
p3217
aVMOTHER
p3218
aVWITH
p3219
aVTWO
p3220
aVMEN.
p3221
aV[INFO]
p3222
aVDara
p3223
aVis
p3224
aVexcited
p3225
aVto
p3226
aVwatch
p3227
aVBig
p3228
aVBang's
p3229
aVconcert
p3230
aVtonight
p3231
aVand
p3232
aVshe's
p3233
aVthere
p3234
aVin
p3235
aVPH
p3236
aVto
p3237
aVsupport
p3238
aVthem
p3239
aVvia
p3240
aV@Push_Mina
p3241
aVBonus
p3242
aVof
p3243
aVbeing
p3244
aVunemployed
p3245
aVgetting
p3246
aVto
p3247
aVwatch
p3248
aVthe
p3249
aVBig
p3250
aVBang
p3251
aVtheory
p3252
aVSheldon
p3253
aVCooper
p3254
aVis
p3255
aVawesome
p3256
aVRT
p3257
aV@RyanCartwright:
p3258
aVSo
p3259
aVmuch
p3260
aVfun
p3261
aVon
p3262
aVBig
p3263
aVBang
p3264
aVtoday!
p3265
aVRemember
p3266
aVto
p3267
aVvote
p3268
aVfor
p3269
aVObama
p3270
aVbecause
p3271
aVthe
p3272
aVother
p3273
aVguy
p3274
aVis
p3275
aVbat
p3276
aVshit
p3277
aVcrazy.
p3278
aV#MagicUnderpantMormonHomophobeAntiWoman
p3279
aVx
aVbig
p3280
aVbang
p3281
aVconcert
p3282
aVsighs
p3283
aV;;;;
p3284
aVwish
p3285
aVi
aVcould
p3286
aVattend
p3287
aVbut
p3288
aVno
p3289
aVticket
p3290
aV&lt;/3
p3291
aV:(
p3292
aVRT
p3293
aV@Kpopers_ngakak:
p3294
aV\u2611
aVBig
p3295
aVBang
p3296
aV(VIP):
p3297
aVVIP
p3298
aVstands
p3299
aVfor
p3300
aV\u201cVery
p3301
aVImportant
p3302
aVPerson\u201d.
p3303
aVRT
p3304
aV@allkpop:
p3305
aV\u201cGangnam
p3306
aVStyle\u201d
p3307
aVMV
p3308
aVchild
p3309
aVstar
p3310
aVHwang
p3311
aVMin
p3312
aVWoo
p3313
aVconfesses
p3314
aVhe
p3315
aVpreviously
p3316
aVliked
p3317
aVBig
p3318
aVBang
p3319
aVmore
p3320
aVthan
p3321
aVPsy
p3322
aVhttp://t.co/qvOaZXWp
p3323
aVLMAO
p3324
aV:))
p3325
aVRT
p3326
aV@samyeollie:
p3327
aVWill
p3328
aVbe
p3329
aVwatching
p3330
aVthe
p3331
aVBig
p3332
aVBang
p3333
aVconcert.....through
p3334
aV@2EINA1
p3335
aV's
p3336
aVtweets
p3337
aVhehe
p3338
aVRT
p3339
aV@Pandelela_R:
p3340
aV#IAdmitThat
p3341
aVim
p3342
aVattracted
p3343
aVto
p3344
aVu
aV\u2665
aV#Big
p3345
aVBang
p3346
aV;-)
p3347
aVRT
p3348
aV@stylesuzi:
p3349
aVeeee
p3350
aVstill
p3351
aVcan't
p3352
aVbelieve
p3353
aVBig
p3354
aVBang
p3355
aVare
p3356
aVcoming
p3357
aVto
p3358
aVLondon!
p3359
aVThe
p3360
aVonly
p3361
aVkpop
p3362
aVboy
p3363
aVband
p3364
aVI
aVam
p3365
aVa
aVfan
p3366
aVof!
p3367
aV*fangirl
p3368
aVscream*
p3369
aVRT
p3370
aV@SelisTurkgulu:
p3371
aVHow
p3372
aVI
aVMet
p3373
aVYour
p3374
aVMother
p3375
aV+
aVThe
p3376
aVBig
p3377
aVBang
p3378
aVTheory
p3379
aV+
aVTwo
p3380
aVAnd
p3381
aVA
aVHalf
p3382
aVMen
p3383
aV=
aVHOW
p3384
aVI
aVBANG
p3385
aVYOUR
p3386
aVMOTHER
p3387
aVWITH
p3388
aVTWO
p3389
aVMEN.
p3390
aVRT
p3391
aV@STAR1_HYOTTIES:
p3392
aVBest
p3393
aVFemale
p3394
aVGroup:
p3395
aV(surprisingly)
p3396
aVSISTAR.
p3397
aVBest
p3398
aVMale
p3399
aVGroup:
p3400
aVTVXQ.
p3401
aVBest
p3402
aVGlobal
p3403
aVFemale
p3404
aVGroup:
p3405
aV2NE1.
p3406
aVBest
p3407
aVGlobal
p3408
aVMale
p3409
aVGroup:
p3410
aVBIG
p3411
aVBANG.
p3412
aV\u201c@frannzzziii:
p3413
aVSo
p3414
aVmany
p3415
aVpeopleeee
p3416
aVwoooo
p3417
aVi
aVam
p3418
aVso
p3419
aVdamn
p3420
aVexcited
p3421
aVfor
p3422
aVbig
p3423
aVbang!\u201d
p3424
aVHUHUHUHUHU
p3425
aVWISH
p3426
aVI
aVWAS
p3427
aVTHERE
p3428
aV:((((((
p3429
aVI
aVam
p3430
aVwatching
p3431
aVThe
p3432
aVBig
p3433
aVBang
p3434
aVTheory,
p3435
aVThe
p3436
aVHiggs
p3437
aVBoson
p3438
aVObserv...
p3439
aV(S06E03).
p3440
aVhttp://t.co/qIKh3utX
p3441
aV#TBBT
p3442
aVRT
p3443
aV@Kpopers_ngakak:
p3444
aV\u2611
aVBig
p3445
aVBang
p3446
aV(VIP):
p3447
aVVIP
p3448
aVstands
p3449
aVfor
p3450
aV\u201cVery
p3451
aVImportant
p3452
aVPerson\u201d.
p3453
aVNp,
p3454
aVStill
p3455
aVAlive
p3456
aV-
aVBig
p3457
aVBang
p3458
aVWill
p3459
aVbe
p3460
aVwatching
p3461
aVthe
p3462
aVBig
p3463
aVBang
p3464
aVconcert.....through
p3465
aV@2EINA1
p3466
aV's
p3467
aVtweets
p3468
aVhehe
p3469
aVRT
p3470
aV@SelisTurkgulu:
p3471
aVHow
p3472
aVI
aVMet
p3473
aVYour
p3474
aVMother
p3475
aV+
aVThe
p3476
aVBig
p3477
aVBang
p3478
aVTheory
p3479
aV+
aVTwo
p3480
aVAnd
p3481
aVA
aVHalf
p3482
aVMen
p3483
aV=
aVHOW
p3484
aVI
aVBANG
p3485
aVYOUR
p3486
aVMOTHER
p3487
aVWITH
p3488
aVTWO
p3489
aVMEN.
p3490
aVRT
p3491
aV@loveanimeSHINee:
p3492
aVthe
p3493
aVfeeling
p3494
aVwhen
p3495
aVbig
p3496
aVbang
p3497
aVis
p3498
aVhere
p3499
aVand
p3500
aVwill
p3501
aVhave
p3502
aVtheir
p3503
aVconcert
p3504
aVlater
p3505
aVand
p3506
aVyour
p3507
aVnot
p3508
aVthere
p3509
aVto
p3510
aVwatch
p3511
aVTT_TT
p3512
aV#BIGBANG!
p3513
aV@conn720
p3514
aVsnap
p3515
aVminus
p3516
aVBig
p3517
aVBang
p3518
aVtheory!:-p
p3519
aVRT
p3520
aV@AnekaYESSmagz:
p3521
aVHave
p3522
aVA
aVGood
p3523
aVTime
p3524
aVWith
p3525
aVBig
p3526
aVBang
p3527
aVhttp://t.co/t4jFNXsg
p3528
aV#YESSMusicMania
p3529
aVHaha
p3530
aVlove
p3531
aVthe
p3532
aVbig
p3533
aVbang
p3534
aVtheory
p3535
aV@MsiaBB1st
p3536
aVselling
p3537
aVmy
p3538
aVBIG
p3539
aVBANG
p3540
aVCAT
p3541
aV3
aVTICKET
p3542
aVFOR
p3543
aVONLY
p3544
aV500!
p3545
aVAND
p3546
aVIT
p3547
aVCAN
p3548
aVBE
p3549
aVBARGAINED!
p3550
aV(PLS
p3551
aVRT)
p3552
aVIf
p3553
aVinterested
p3554
aVdo
p3555
aVmention
p3556
aVme.
p3557
aV@AnaisPirnay
p3558
aVbig
p3559
aVbang
p3560
aVband's
p3561
aVcoming
p3562
aVto
p3563
aVthe
p3564
aVUK!!!!
p3565
aVSneak
p3566
aVPeek
p3567
aV-
aVThe
p3568
aVBig
p3569
aVBang
p3570
aVTheory
p3571
aVS06E05
p3572
aVThe
p3573
aVHolographic&amp;#8230;
p3574
aVhttp://t.co/6oxSISZ7
p3575
aVRT
p3576
aV@SpoilerTV:
p3577
aVThe
p3578
aVBig
p3579
aVBang
p3580
aVTheory
p3581
aV-
aVEpisode
p3582
aV6.05
p3583
aV-
aVThe
p3584
aVHolographic
p3585
aVExcitation
p3586
aV-
aVSneak
p3587
aVPeek
p3588
aVhttp://t.co/cLSnwHe0
p3589
aVThe
p3590
aVBig
p3591
aVBang
p3592
aVTheory
p3593
aV-
aVEpisode
p3594
aV6.05
p3595
aV-
aVThe
p3596
aVHolographic
p3597
aVExcitation
p3598
aV-
aVSneak
p3599
aVPeek
p3600
aVhttp://t.co/HeWVNZYO
p3601
aVEveryone
p3602
aVloves
p3603
aVthe
p3604
aVbig
p3605
aVbang
p3606
aVtheory!
p3607
aVRT
p3608
aV@allkpop:
p3609
aV\u201cGangnam
p3610
aVStyle\u201d
p3611
aVMV
p3612
aVchild
p3613
aVstar
p3614
aVHwang
p3615
aVMin
p3616
aVWoo
p3617
aVconfesses
p3618
aVhe
p3619
aVpreviously
p3620
aVliked
p3621
aVBig
p3622
aVBang
p3623
aVmore
p3624
aVthan
p3625
aVPsy
p3626
aVhttp://t.co/qvOaZXWp
p3627
aVRT
p3628
aV@Pandelela_R:
p3629
aV#IAdmitThat
p3630
aVim
p3631
aVattracted
p3632
aVto
p3633
aVu
aV\u2665
aV#Big
p3634
aVBang
p3635
aV;-)
p3636
aVThe
p3637
aVBig
p3638
aVBang
p3639
aVTheory
p3640
aV-
aVEpisode
p3641
aV6.05
p3642
aV-
aVThe
p3643
aVHolographic
p3644
aVExcitation
p3645
aV-
aVSneak
p3646
aVPeek
p3647
aVhttp://t.co/uexQXVXp
p3648
aVThe
p3649
aVBig
p3650
aVBang
p3651
aVTheory
p3652
aV-
aVEpisode
p3653
aV6.05
p3654
aV-
aVThe
p3655
aVHolographic
p3656
aVExcitation
p3657
aV-
aVSneak
p3658
aVPeek
p3659
aVhttp://t.co/okZBvhyF
p3660
aVI'm
p3661
aVa
aVFan
p3662
aVof
p3663
aVThe
p3664
aVBig
p3665
aVBang
p3666
aVTheory
p3667
aVon
p3668
aV#GetGlue
p3669
aVhttp://t.co/ZiaKHcJf
p3670
aV@missdprdv
p3671
aVshe's
p3672
aVthere
p3673
aVfor
p3674
aVa
aVmini
p3675
aVvacation
p3676
aVand
p3677
aVto
p3678
aVattend
p3679
aVbig
p3680
aVbang's
p3681
aValive
p3682
aVtour
p3683
aVconcert
p3684
aV^^
p3685
aVAaaahhh,
p3686
aVThe
p3687
aVBig
p3688
aVBang
p3689
aVTheory.
p3690
aVWhy
p3691
aVcan't
p3692
aVI
aVquit
p3693
aVyou?
p3694
aV#loser
p3695
aV#lovingit
p3696
aVs06e01.
p3697
aVI'm
p3698
aVwatching
p3699
aVThe
p3700
aVBig
p3701
aVBang
p3702
aVTheory
p3703
aV(106
p3704
aVothers
p3705
aVchecked-in)
p3706
aVhttp://t.co/qJLykZXC
p3707
aV#GetGlue
p3708
aV@BigBang_CBS
p3709
aVRT
p3710
aV@SelisTurkgulu:
p3711
aVHow
p3712
aVI
aVMet
p3713
aVYour
p3714
aVMother
p3715
aV+
aVThe
p3716
aVBig
p3717
aVBang
p3718
aVTheory
p3719
aV+
aVTwo
p3720
aVAnd
p3721
aVA
aVHalf
p3722
aVMen
p3723
aV=
aVHOW
p3724
aVI
aVBANG
p3725
aVYOUR
p3726
aVMOTHER
p3727
aVWITH
p3728
aVTWO
p3729
aVMEN.
p3730
aV@Hallyu_UK
p3731
aVat
p3732
aVhere
p3733
aVis
p3734
aVnow
p3735
aVa
aVfloor
p3736
aVplan
p3737
aVfor
p3738
aVBig
p3739
aVBang.
p3740
aVYou
p3741
aVcan
p3742
aVsee
p3743
aVthe
p3744
aVchanged
p3745
aVwhen
p3746
aVyou
p3747
aVselect
p3748
aVte
p3749
aVlayout
p3750
aVfor
p3751
aVBB.
p3752
aVThe
p3753
aVBig
p3754
aVBang
p3755
aVTheory
p3756
aV-
aVEpisode
p3757
aV6.05
p3758
aV-
aVThe
p3759
aVHolographic
p3760
aVExcitation
p3761
aV-
aVSneak
p3762
aVPeek
p3763
aVhttp://t.co/LZUq9on1
p3764
aV#TheBigBangTheory
p3765
aVRT
p3766
aV@rekharamaswamy:
p3767
aV@ckpurohit
p3768
aV@PritishNandy
p3769
aVRavana
p3770
aVmust
p3771
aVhave
p3772
aVlike
p3773
aVan
p3774
aVadvanced
p3775
aVversion
p3776
aVof
p3777
aVSheldon
p3778
aVCooper
p3779
aVof
p3780
aVBig
p3781
aVBang
p3782
aVTheory!
p3783
aVAlmost
p3784
aVstarted
p3785
aVcrying
p3786
aVat
p3787
aVschool
p3788
aVbecause
p3789
aVI
aVfound
p3790
aVout
p3791
aVthat
p3792
aVwe
p3793
aVhave
p3794
aVBig
p3795
aVBang
p3796
aVtickets
p3797
aVdheiejdgduwjfbsheidkf
p3798
aVRT
p3799
aV@SelisTurkgulu:
p3800
aVHow
p3801
aVI
aVMet
p3802
aVYour
p3803
aVMother
p3804
aV+
aVThe
p3805
aVBig
p3806
aVBang
p3807
aVTheory
p3808
aV+
aVTwo
p3809
aVAnd
p3810
aVA
aVHalf
p3811
aVMen
p3812
aV=
aVHOW
p3813
aVI
aVBANG
p3814
aVYOUR
p3815
aVMOTHER
p3816
aVWITH
p3817
aVTWO
p3818
aVMEN.
p3819
aVI
aVwanna
p3820
aVvote
p3821
aVfor
p3822
aVMBLAQ
p3823
aVat
p3824
aVthe
p3825
aVMAMA's
p3826
aVbut
p3827
aVthe
p3828
aVMnet
p3829
aVsite
p3830
aVis
p3831
aVdown
p3832
aVand
p3833
aVI
aVfeel
p3834
aVlike
p3835
aVthey're
p3836
aVgonna
p3837
aVlose
p3838
aVto
p3839
aVsuju
p3840
aVor
p3841
aVbig
p3842
aVbang
p3843
aVanyways
p3844
aV*sigh*
p3845
aVRT
p3846
aV@Kpopers_ngakak:
p3847
aV\u2611
aVBig
p3848
aVBang
p3849
aV(VIP):
p3850
aVVIP
p3851
aVstands
p3852
aVfor
p3853
aV\u201cVery
p3854
aVImportant
p3855
aVPerson\u201d.
p3856
aVRT
p3857
aV@1an9eLx
p3858
aV|
aVBig
p3859
aVBang
p3860
aVtickets
p3861
aVyo.
p3862
aVCheers
p3863
aV@Muushy
p3864
aV\U0001f48b
aVRT
p3865
aV@jonny_tk:
p3866
aVwe
p3867
aVhave
p3868
aVtickets
p3869
aVto
p3870
aVsee
p3871
aVBig
p3872
aVBang!!!
p3873
aV#bigbangalivetour
p3874
aVGM.
p3875
aVMake
p3876
aVit
p3877
aVcount...
p3878
aVMake
p3879
aVit
p3880
aVBIG!
p3881
aV#Bang!
p3882
aV@district3music
p3883
aVDid
p3884
aVyou
p3885
aVknow
p3886
aVthat
p3887
aVMicky
p3888
aVand
p3889
aVSheldon
p3890
aVfrom
p3891
aVThe
p3892
aVBig
p3893
aVBang
p3894
aVTheory
p3895
aVhave
p3896
aVthe
p3897
aVsame
p3898
aVsurname??
p3899
aVHis
p3900
aVname
p3901
aVis
p3902
aVJim
p3903
aVParsons
p3904
aVNakalusot
p3905
aVako
p3906
aVsa
p3907
aVwild
p3908
aVboar!
p3909
aVSuccess
p3910
aVhahaha
p3911
aVhere
p3912
aVI
aVcome
p3913
aVBig
p3914
aVBang
p3915
aV:))))
p3916
aV@beynuh
p3917
aVRT
p3918
aV@Pandelela_R:
p3919
aV#IAdmitThat
p3920
aVim
p3921
aVattracted
p3922
aVto
p3923
aVu
aV\u2665
aV#Big
p3924
aVBang
p3925
aV;-)
p3926
aVRT
p3927
aV@MyGhettoElectro:
p3928
aVLOL
p3929
aVRT
p3930
aV@allkpop:
p3931
aV\u201cGangnam
p3932
aVStyle\u201d
p3933
aVMV
p3934
aVchild
p3935
aVstar
p3936
aVHwang
p3937
aVMin
p3938
aVWoo
p3939
aVconfesses
p3940
aVhe
p3941
aVpreviously
p3942
aVliked
p3943
aVBig
p3944
aVBang
p3945
aVmore
p3946
aVthan
p3947
aVPsy
p3948
aVhttp://t.co/YYXW1ScV
p3949
aV@firdausrozemi
p3950
aVhi.
p3951
aVDo
p3952
aVyou
p3953
aVby
p3954
aVchance
p3955
aVwant
p3956
aVa
aVBig
p3957
aVBang
p3958
aVCat
p3959
aV3
aVRockpit
p3960
aVA
aVticket?
p3961
aVI'm
p3962
aVselling
p3963
aVat
p3964
aVa
aVcheaper
p3965
aVprice
p3966
aV:)
p3967
aVthe
p3968
aVbig
p3969
aVbig
p3970
aVbang,
p3971
aVthe
p3972
aVreason
p3973
aVi'm
p3974
aValive
p3975
aVwhen
p3976
aVall
p3977
aVthe
p3978
aVstars
p3979
aVcollide
p3980
aVin
p3981
aVthis
p3982
aVuniverse
p3983
aVinside
p3984
aVYEEEEEEEEEEEEEEES
p3985
aV@Rock_Mafia
p3986
aV@RockMafiaArmy
p3987
aVRT
p3988
aV@Pandelela_R:
p3989
aV#IAdmitThat
p3990
aVim
p3991
aVattracted
p3992
aVto
p3993
aVu
aV\u2665
aV#Big
p3994
aVBang
p3995
aV;-)
p3996
aV[News/Review]
p3997
aVBig
p3998
aVBang
p3999
aVG-Dragon
p4000
aVStyle
p4001
aVhttp://t.co/VKg0Mzyb
p4002
aVlewat
p4003
aV@YeppopoKPOP
p4004
aVGoing
p4005
aVto
p4006
aVbig
p4007
aVbang
p4008
aVwould
p4009
aVcost
p4010
aVme
p4011
aVat
p4012
aVleast
p4013
aV288
p4014
aVeuros...
p4015
aVRT
p4016
aV@PussyMagnetHaz:
p4017
aV"The
p4018
aVbig
p4019
aVbang
p4020
aVtheory
p4021
aVis
p4022
aVstupid"
p4023
aVhttp://t.co/xYU9XZte
p4024
aVRT
p4025
aV@SelisTurkgulu:
p4026
aVHow
p4027
aVI
aVMet
p4028
aVYour
p4029
aVMother
p4030
aV+
aVThe
p4031
aVBig
p4032
aVBang
p4033
aVTheory
p4034
aV+
aVTwo
p4035
aVAnd
p4036
aVA
aVHalf
p4037
aVMen
p4038
aV=
aVHOW
p4039
aVI
aVBANG
p4040
aVYOUR
p4041
aVMOTHER
p4042
aVWITH
p4043
aVTWO
p4044
aVMEN.
p4045
aV@OhSoLoveDemi
p4046
aVOne
p4047
aVof
p4048
aVthe
p4049
aVBig
p4050
aVBang
p4051
aVmembers
p4052
aVx)
p4053
aV\u2605Big
p4054
aVBang\u2605
p4055
aVLeaving
p4056
aVFrom
p4057
aVTaiwan;
p4058
aVSeungRiFollow
p4059
aVthe
p4060
aVlink
p4061
aVfor
p4062
aVsome
p4063
aVmore~!!
p4064
aV#bigbang
p4065
aVhttp://t.co/9wi2TIWl
p4066
aVRT
p4067
aV@RyanCartwright:
p4068
aVSo
p4069
aVmuch
p4070
aVfun
p4071
aVon
p4072
aVBig
p4073
aVBang
p4074
aVtoday!
p4075
aVRemember
p4076
aVto
p4077
aVvote
p4078
aVfor
p4079
aVObama
p4080
aVbecause
p4081
aVthe
p4082
aVother
p4083
aVguy
p4084
aVis
p4085
aVbat
p4086
aVshit
p4087
aVcrazy.
p4088
aV#MagicUnderpantMormonHomophobeAntiWoman
p4089
aVx
aVI'm
p4090
aVgoing
p4091
aVto
p4092
aVstay
p4093
aVin
p4094
aVmy
p4095
aVpjs
p4096
aVall
p4097
aVday,
p4098
aVwatch
p4099
aVbig
p4100
aVbang
p4101
aVtheory,
p4102
aVdo
p4103
aVwork
p4104
aVin
p4105
aVbed
p4106
aV&amp;
p4107
aVhave
p4108
aVa
aVmassive
p4109
aVload
p4110
aVof
p4111
aVcheesy
p4112
aVpasta
p4113
aV#carbtakeover
p4114
aVHave
p4115
aVA
aVGood
p4116
aVTime
p4117
aVWith
p4118
aVBig
p4119
aVBang
p4120
aVhttp://t.co/t4jFNXsg
p4121
aV#YESSMusicMania
p4122
aVRT
p4123
aV@happeesy:
p4124
aVBig
p4125
aVBang
p4126
aVUpdate:
p4127
aVGA
p4128
aVSold
p4129
aVout
p4130
aVas
p4131
aVin,
p4132
aVeven
p4133
aVSRO
p4134
aVsold
p4135
aVout
p4136
aVRT
p4137
aV@SelisTurkgulu:
p4138
aVHow
p4139
aVI
aVMet
p4140
aVYour
p4141
aVMother
p4142
aV+
aVThe
p4143
aVBig
p4144
aVBang
p4145
aVTheory
p4146
aV+
aVTwo
p4147
aVAnd
p4148
aVA
aVHalf
p4149
aVMen
p4150
aV=
aVHOW
p4151
aVI
aVBANG
p4152
aVYOUR
p4153
aVMOTHER
p4154
aVWITH
p4155
aVTWO
p4156
aVMEN.
p4157
aVThe
p4158
aVBig
p4159
aVBang
p4160
aVTheory
p4161
aV-
aVEpisode
p4162
aV6.05
p4163
aV-
aVThe
p4164
aVHolographic
p4165
aVExcitation
p4166
aV-
aVSneak
p4167
aVPeek
p4168
aVhttp://t.co/dyjB0x8P
p4169
aVRT
p4170
aV@ashleychoi:
p4171
aVLooking
p4172
aVover
p4173
aVthe
p4174
aVBig
p4175
aVBang
p4176
aVinfo
p4177
aVYG
p4178
aVsent
p4179
aVme
p4180
aV-
aVI
aVcan't
p4181
aVbelieve
p4182
aVKpop
p4183
aVartists
p4184
aVput
p4185
aVout
p4186
aVso
p4187
aVmany
p4188
aValbums
p4189
aVin
p4190
aVsuch
p4191
aVa
aVshort
p4192
aVtime!
p4193
aVhttp://t.co/KBDeFhmC
p4194
aVRT
p4195
aV@we7infinitize:
p4196
aVInfinite
p4197
aV3D
p4198
aVconcert
p4199
aVhas
p4200
aVmore
p4201
aVmovie
p4202
aVviewers
p4203
aVcompared
p4204
aVto
p4205
aVother
p4206
aVgroups'
p4207
aVmovies.
p4208
aVhttp://t.co/5P3uCY1v
p4209
aVI
aVWANT
p4210
aVBIG
p4211
aVBANG
p4212
aVTICKETS
p4213
aVT____T
p4214
aVI
aVwant
p4215
aVto
p4216
aVgo
p4217
aVto
p4218
aVbig
p4219
aVbang's
p4220
aVthis
p4221
aVsaturday!
p4222
aVNak
p4223
aVnak
p4224
aVnak!
p4225
aVAll
p4226
aVright,
p4227
aVthat
p4228
aVfinishes
p4229
aVoff
p4230
aV"Breaking
p4231
aVBad"
p4232
aVseason
p4233
aV2
aVwith
p4234
aVa
aVbig
p4235
aVol'
p4236
aVbang.
p4237
aVNow
p4238
aVback
p4239
aVto
p4240
aV"MIssion:
p4241
aVImpossible".
p4242
aVHey,
p4243
aVand
p4244
aVit's
p4245
aVwith
p4246
aVa
aVbang!
p4247
aVBig
p4248
aVBang
p4249
aVand
p4250
aVJonas
p4251
aVBrother
p4252
aVjust
p4253
aVhad
p4254
aVto
p4255
aVcome
p4256
aVto
p4257
aVMalaysia
p4258
aVwhen
p4259
aVmy
p4260
aVexams
p4261
aVare
p4262
aVnext
p4263
aVweek
p4264
aVla
p4265
aVright.
p4266
aVErghhhhsjdnskwygs
p4267
aVThe
p4268
aVBig
p4269
aVBang
p4270
aVTheory
p4271
aV-
aVEpisode
p4272
aV6.05
p4273
aV-
aVThe
p4274
aVHolographic
p4275
aVExcitation
p4276
aV-
aVSneak
p4277
aVPeek
p4278
aVhttp://t.co/cLSnwHe0
p4279
aVRT
p4280
aV@kpopbands_ofl:
p4281
aV[Fun
p4282
aVfact]
p4283
aVThe
p4284
aVTOP
p4285
aVname
p4286
aV(TOP
p4287
aVof
p4288
aVBig
p4289
aVbang)
p4290
aVwas
p4291
aVgiven
p4292
aVby
p4293
aVsenior,
p4294
aVSe7en.
p4295
aV|
aVadmin
p4296
aVBaekYeol
p4297
aV(@louise_angeli07)
p4298
aV@heyJUDEx
p4299
aVyou
p4300
aVwatching
p4301
aVbig
p4302
aVbang?
p4303
aVRT
p4304
aV@Kpopers_ngakak:
p4305
aV\u2611
aVBig
p4306
aVBang
p4307
aV(VIP):
p4308
aVVIP
p4309
aVstands
p4310
aVfor
p4311
aV\u201cVery
p4312
aVImportant
p4313
aVPerson\u201d.
p4314
aVRT
p4315
aV@fatimashah_:
p4316
aVI
aVadore
p4317
aVsheldon
p4318
aVfrom
p4319
aVthe
p4320
aVbig
p4321
aVbang
p4322
aVtheory
p4323
aVRT
p4324
aV@clargorreon:
p4325
aVCRYING
p4326
aVBECAUSE
p4327
aVTHE
p4328
aVFIRST
p4329
aVAND
p4330
aVPROBABLY
p4331
aVTHE
p4332
aVONLY
p4333
aVTIME
p4334
aVBIG
p4335
aVBANG
p4336
aVIS
p4337
aVIN
p4338
aVMY
p4339
aVCOUNTRY
p4340
aVAND
p4341
aVI
aVCAN'T
p4342
aVWATCH
p4343
aVTHEM
p4344
aVHUHUHU
p4345
aVMY
p4346
aVHEART
p4347
aVRT
p4348
aV@topkpoptv:
p4349
aVNow
p4350
aVPlaying
p4351
aVon
p4352
aV@topkpoptv
p4353
aVRADIO:
p4354
aVBig
p4355
aVBang
p4356
aV-
aVLove
p4357
aVDust
p4358
aV::
p4359
aVListen
p4360
aV-&gt;
p4361
aVhttp://t.co/6mL51CiW
p4362
aVRT
p4363
aV@topkpoptv:
p4364
aVNow
p4365
aVPlaying
p4366
aVon
p4367
aV@topkpoptv
p4368
aVRADIO:
p4369
aVBig
p4370
aVBang
p4371
aV-
aVLove
p4372
aVDust
p4373
aV::
p4374
aVListen
p4375
aV-&gt;
p4376
aVhttp://t.co/knO9t77j
p4377
aVRT
p4378
aV"@topkpoptv:
p4379
aVNow
p4380
aVPlaying
p4381
aVon
p4382
aV@topkpoptv
p4383
aVRADIO:
p4384
aVBig
p4385
aVBang
p4386
aV-
aVLove
p4387
aVDust
p4388
aV::
p4389
aVListen
p4390
aV-&gt;
p4391
aVhttp://t.co/wPs7fBH1"
p4392
aVRT
p4393
aV"@topkpoptv:
p4394
aVNow
p4395
aVPlaying
p4396
aVon
p4397
aV@topkpoptv
p4398
aVRADIO:
p4399
aVBig
p4400
aVBang
p4401
aV-
aVLove
p4402
aVDust
p4403
aV::
p4404
aVListen
p4405
aV-&gt;
p4406
aVhttp://t.co/wPs7fBH1"
p4407
aVAww
p4408
aVman!
p4409
aVSo
p4410
aVbadly
p4411
aVwant
p4412
aVBig
p4413
aVBang
p4414
aVtickets
p4415
aVbut
p4416
aVwith
p4417
aVit
p4418
aVbeing
p4419
aVin
p4420
aVLondon
p4421
aVits
p4422
aVgoing
p4423
aVto
p4424
aVbe
p4425
aVso
p4426
aV
p4427
aV&gt;&lt;!!!
p4428
aV..Imagine
p4429
aVBig
p4430
aVBang's
p4431
aVGrand
p4432
aVEntrance
p4433
aVin
p4434
aVthe
p4435
aVconcert..
p4436
aV"I'm
p4437
aVStill
p4438
aVAlive"
p4439
aVRT
p4440
aV@ImmaMoustache:
p4441
aVimma
p4442
aVshoot
p4443
aVbig
p4444
aVbang
p4445
aVbrains
p4446
aVout
p4447
aV(:
p4448
aVRT
p4449
aV@EllieBlakee:
p4450
aVAlways
p4451
aVseem
p4452
aVto
p4453
aVquote
p4454
aVbig
p4455
aVbang
p4456
aVtheory
p4457
aVin
p4458
aVgeneral
p4459
aVconversation
p4460
aVwithout
p4461
aVeven
p4462
aVrealising
p4463
aVRT
p4464
aV@Pandelela_R:
p4465
aV#IAdmitThat
p4466
aVim
p4467
aVattracted
p4468
aVto
p4469
aVu
aV\u2665
aV#Big
p4470
aVBang
p4471
aV;-)
p4472
aV\u201c@Pandelela_R
p4473
aV#IAdmitThat
p4474
aVim
p4475
aVattracted
p4476
aVto
p4477
aVu
aV\u2665
aV#Big
p4478
aVBang
p4479
aV;-)\u201d
p4480
aVenjoy
p4481
aVthe
p4482
aVconcert!
p4483
aVKirim
p4484
aVsalam
p4485
aVngan
p4486
aVsidak
p4487
aVnya
p4488
aVhehee
p4489
aVI
aVneed
p4490
aVto
p4491
aVdistract
p4492
aVmyself
p4493
aVfrom
p4494
aVremembering
p4495
aVthat
p4496
aVBig
p4497
aVBang's
p4498
aVconcert
p4499
aVwill
p4500
aVhappen
p4501
aVtonight
p4502
aV:(
p4503
aVbecause
p4504
aVi
aVcan't
p4505
aVbig
p4506
aVbang's
p4507
aVconcert...
p4508
aVi'm
p4509
aVsingung
p4510
aVmy
p4511
aVblueeeeeeees~
p4512
aV\u2639
aVhttp://t.co/STP4hv51
p4513
aVRT
p4514
aV@PussyMagnetHaz:
p4515
aV"The
p4516
aVbig
p4517
aVbang
p4518
aVtheory
p4519
aVis
p4520
aVstupid"
p4521
aVhttp://t.co/xYU9XZte
p4522
aVRT
p4523
aV@GdragonMy:
p4524
aVBIG
p4525
aVBANG
p4526
aVPRESS
p4527
aVCONFERENCE
p4528
aVPHOTOS
p4529
aVIN
p4530
aVTAIWAN
p4531
aVAND
p4532
aVIT'S
p4533
aVIN
p4534
aVHD!!!
p4535
aVhttp://t.co/foAzjRMt
p4536
aV*thank
p4537
aVyou
p4538
aVto
p4539
aVthis
p4540
aVperson*
p4541
aV\u2665_\u2665
p4542
aVRT
p4543
aV@RyanCartwright:
p4544
aVSo
p4545
aVmuch
p4546
aVfun
p4547
aVon
p4548
aVBig
p4549
aVBang
p4550
aVtoday!
p4551
aVRemember
p4552
aVto
p4553
aVvote
p4554
aVfor
p4555
aVObama
p4556
aVbecause
p4557
aVthe
p4558
aVother
p4559
aVguy
p4560
aVis
p4561
aVbat
p4562
aVshit
p4563
aVcrazy.
p4564
aV#MagicUnderpantMormonHomophobeAntiWoman
p4565
aVx
aVRT
p4566
aV@Pandelela_R:
p4567
aV#IAdmitThat
p4568
aVim
p4569
aVattracted
p4570
aVto
p4571
aVu
aV\u2665
aV#Big
p4572
aVBang
p4573
aV;-)
p4574
aVBest
p4575
aVMusic
p4576
aVVideo
p4577
aV:
aVBig
p4578
aVBang
p4579
aV#MAMACurrentRanking
p4580
aVRT
p4581
aV@allkpop:
p4582
aV\u201cGangnam
p4583
aVStyle\u201d
p4584
aVMV
p4585
aVchild
p4586
aVstar
p4587
aVHwang
p4588
aVMin
p4589
aVWoo
p4590
aVconfesses
p4591
aVhe
p4592
aVpreviously
p4593
aVliked
p4594
aVBig
p4595
aVBang
p4596
aVmore
p4597
aVthan
p4598
aVPsy
p4599
aVhttp://t.co/qvOaZXWp
p4600
aVI
aVwanna
p4601
aVsee
p4602
aVyou!!!
p4603
aV"@tgosingtian:
p4604
aVGetting
p4605
aVready
p4606
aVwith
p4607
aVmy
p4608
aVbadass
p4609
aVglitters,
p4610
aVstuds
p4611
aVand
p4612
aVcrosses
p4613
aVfor
p4614
aVBIG
p4615
aVBANG!
p4616
aVBut
p4617
aVwith
p4618
aVkulot
p4619
aVhair.
p4620
aVLulz"
p4621
aVRT
p4622
aV@PussyMagnetHaz:
p4623
aV"The
p4624
aVbig
p4625
aVbang
p4626
aVtheory
p4627
aVis
p4628
aVstupid"
p4629
aVhttp://t.co/xYU9XZte
p4630
aVRT
p4631
aV@topkpoptv:
p4632
aVNow
p4633
aVPlaying
p4634
aVon
p4635
aV@topkpoptv
p4636
aVRADIO:
p4637
aVBig
p4638
aVBang
p4639
aV-
aVLove
p4640
aVDust
p4641
aV::
p4642
aVListen
p4643
aV-&gt;
p4644
aVhttp://t.co/6mL51CiW
p4645
aVBig
p4646
aVbang
p4647
aVblue
p4648
aV~finally
p4649
aVhave
p4650
aVbeen
p4651
aVwaiting
p4652
aVfor
p4653
aVthis
p4654
aVsong..
p4655
aV@Sslut_Kushite:
p4656
aVnow
p4657
aVm
aVtryna
p4658
aVread
p4659
aVfor
p4660
aVsome
p4661
aVafte
p4662
aVcat
p4663
aVwhile
p4664
aVdoing
p4665
aVbig
p4666
aVbang
p4667
aVtheory
p4668
aVnt
p4669
aVto
p4670
aVget
p4671
aVbored...its
p4672
aVnot
p4673
aVworking
p4674
aVRT
p4675
aV@Pandelela_R:
p4676
aV#IAdmitThat
p4677
aVim
p4678
aVattracted
p4679
aVto
p4680
aVu
aV\u2665
aV#Big
p4681
aVBang
p4682
aV;-)
p4683
aVRT
p4684
aV@happeesy:
p4685
aVBig
p4686
aVBang
p4687
aVUpdate:
p4688
aVGA
p4689
aVSold
p4690
aVout
p4691
aVas
p4692
aVin,
p4693
aVeven
p4694
aVSRO
p4695
aVsold
p4696
aVout
p4697
aVHow
p4698
aVI
aVMet
p4699
aVYour
p4700
aVMother
p4701
aV+
aVThe
p4702
aVBig
p4703
aVBang
p4704
aVTheory
p4705
aV+
aVTwo
p4706
aVAnd
p4707
aVA
aVHalf
p4708
aVMen
p4709
aV=
aVHOW
p4710
aVI
aVBANG
p4711
aVYOUR
p4712
aVMOTHER
p4713
aVWITH
p4714
aVTWO
p4715
aVMEN.
p4716
aVRT
p4717
aV@we7infinitize:
p4718
aVInfinite
p4719
aV3D
p4720
aVconcert
p4721
aVhas
p4722
aVmore
p4723
aVmovie
p4724
aVviewers
p4725
aVcompared
p4726
aVto
p4727
aVother
p4728
aVgroups'
p4729
aVmovies.
p4730
aVhttp://t.co/5P3uCY1v
p4731
aVRT
p4732
aV@allkpop:
p4733
aV\u201cGangnam
p4734
aVStyle\u201d
p4735
aVMV
p4736
aVchild
p4737
aVstar
p4738
aVHwang
p4739
aVMin
p4740
aVWoo
p4741
aVconfesses
p4742
aVhe
p4743
aVpreviously
p4744
aVliked
p4745
aVBig
p4746
aVBang
p4747
aVmore
p4748
aVthan
p4749
aVPsy
p4750
aVhttp://t.co/qvOaZXWp
p4751
aVRT
p4752
aV@flip_diddy_flip:
p4753
aVI'd
p4754
aVdo
p4755
aVnasty
p4756
aVnasty
p4757
aVthings
p4758
aVto
p4759
aVpenny
p4760
aVfrom
p4761
aVbig
p4762
aVbang
p4763
aVtheory
p4764
aVOh
p4765
aVdear,
p4766
aVBig
p4767
aVBang
p4768
aVTheory
p4769
aVso
p4770
aVgood
p4771
aVthis
p4772
aVmorning
p4773
aVI'm
p4774
aVwatching
p4775
aVit
p4776
aVagain
p4777
aVon
p4778
aV+1.
p4779
aVBazinga.
p4780
aVAn
p4781
aVearly
p4782
aVmorning
p4783
aVtalk
p4784
aVabout
p4785
aVhow
p4786
aVwe
p4787
aVgot
p4788
aVhere,
p4789
aVparenting
p4790
aVarticle
p4791
aVhttp://t.co/J4OHYDK9
p4792
aV#IAdmitThat
p4793
aVim
p4794
aVattracted
p4795
aVto
p4796
aVu
aV\u2665
aV#Big
p4797
aVBang
p4798
aV;-)
p4799
aV@divanocturno
p4800
aVjust
p4801
aVlisten
p4802
aVto
p4803
aVthis,
p4804
aVLOL
p4805
aVhttp://t.co/QeNaRHQP
p4806
aVMy
p4807
aVsister's
p4808
aVwatching
p4809
aVBig
p4810
aVBang's
p4811
aVconcert
p4812
aVwhile
p4813
aVI'm
p4814
aVhere
p4815
aVin
p4816
aVthe
p4817
aVcondo...
p4818
aValone...
p4819
aVdoing
p4820
aVnothing.
p4821
aVRT
p4822
aV@happeesy:
p4823
aVBig
p4824
aVBang
p4825
aVUpdate:
p4826
aVGA
p4827
aVSold
p4828
aVout
p4829
aVas
p4830
aVin,
p4831
aVeven
p4832
aVSRO
p4833
aVsold
p4834
aVout
p4835
aVRT
p4836
aV@timbailon:
p4837
aVNow
p4838
aVthats
p4839
aVmadness.
p4840
aVRT
p4841
aV@shouwta:
p4842
aVprince
p4843
aVbought
p4844
aVtickets
p4845
aVto
p4846
aVbig
p4847
aVbang....
p4848
aVAND
p4849
aVHE'S
p4850
aVNOT
p4851
aVGOING
p4852
aVWOW
p4853
aVFANTASTIC
p4854
aVBABY
p4855
aVRT
p4856
aV@happeesy:
p4857
aVBig
p4858
aVBang
p4859
aVUpdate:
p4860
aVGA
p4861
aVSold
p4862
aVout
p4863
aVas
p4864
aVin,
p4865
aVeven
p4866
aVSRO
p4867
aVsold
p4868
aVout
p4869
aV#NowAiring
p4870
aVBig
p4871
aVBang
p4872
aV-
aVMonster
p4873
aV#MostWanted
p4874
aVw/
p4875
aVCj
p4876
aV@puttry_lavigne
p4877
aV|
aVStreaming
p4878
aV&gt;&gt;
p4879
aVhttp://t.co/vgT5eE3n
p4880
aVBig
p4881
aVBang
p4882
aVat
p4883
aVMOA
p4884
aVArena.
p4885
aVA
aVmust
p4886
aVsee
p4887
aVconcert
p4888
aVfor
p4889
aVall
p4890
aVthe
p4891
aVKPop
p4892
aVfans.
p4893
aVSana
p4894
aVnandun
p4895
aVaku.
p4896
aV:(
p4897
aVRT
p4898
aV@PussyMagnetHaz:
p4899
aV"The
p4900
aVbig
p4901
aVbang
p4902
aVtheory
p4903
aVis
p4904
aVstupid"
p4905
aVhttp://t.co/xYU9XZte
p4906
aVThat
p4907
aVbig
p4908
aVbang
p4909
aVtheory
p4910
aVwhip
p4911
aVepisode
p4912
aVcracks
p4913
aVme
p4914
aVup!!!
p4915
aVRT
p4916
aV@Alyayaaaa:
p4917
aVRICH.
p4918
aVYG
p4919
aVIS
p4920
aVSUPER
p4921
aVRICH
p4922
aVTHIS
p4923
aVYEAR.
p4924
aV4
aVOF
p4925
aVHIS
p4926
aVARTISTS
p4927
aVMAKE
p4928
aVA
aVCOMEBACK
p4929
aVTHIS
p4930
aVYEAR.
p4931
aVBIG
p4932
aVBANG,2NE1,PSY,EPIK
p4933
aVHIGH.
p4934
aVWOW
p4935
aVHow
p4936
aVI
aVConvinced
p4937
aVMy
p4938
aVParents
p4939
aVto
p4940
aVLet
p4941
aVMe
p4942
aVGo
p4943
aVto
p4944
aVthe
p4945
aVBig
p4946
aVBang
p4947
aVAlive
p4948
aVConcert
p4949
aV-
aV3sha2lud:
p4950
aVThen,
p4951
aVI
aVgave
p4952
aVmy
p4953
aVparents
p4954
aVsom\u2026
p4955
aVhttp://t.co/5XReqxyY
p4956
aVRT
p4957
aV@RyanCartwright:
p4958
aVSo
p4959
aVmuch
p4960
aVfun
p4961
aVon
p4962
aVBig
p4963
aVBang
p4964
aVtoday!
p4965
aVRemember
p4966
aVto
p4967
aVvote
p4968
aVfor
p4969
aVObama
p4970
aVbecause
p4971
aVthe
p4972
aVother
p4973
aVguy
p4974
aVis
p4975
aVbat
p4976
aVshit
p4977
aVcrazy.
p4978
aV#MagicUnderpantMormonHomophobeAntiWoman
p4979
aVx
aV[Fun
p4980
aVfact]
p4981
aVThe
p4982
aVTOP
p4983
aVname
p4984
aV(TOP
p4985
aVof
p4986
aVBig
p4987
aVbang)
p4988
aVwas
p4989
aVgiven
p4990
aVby
p4991
aVsenior,
p4992
aVSe7en.
p4993
aV|
aVadmin
p4994
aVBaekYeol
p4995
aV(@louise_angeli07)
p4996
aVI
aVwant
p4997
aVto
p4998
aVsee
p4999
aVBig
p5000
aVBang
p5001
aV:(
p5002
aVRT
p5003
aV@happeesy:
p5004
aVBig
p5005
aVBang
p5006
aVUpdate:
p5007
aVGA
p5008
aVSold
p5009
aVout
p5010
aVas
p5011
aVin,
p5012
aVeven
p5013
aVSRO
p5014
aVsold
p5015
aVout
p5016
aV@tonijeffrey
p5017
aVyou'll
p5018
aVlove
p5019
aVthis...
p5020
aVJust
p5021
aVfound
p5022
aVa
aVFacebook
p5023
aVpage
p5024
aV"50
p5025
aVShades
p5026
aVof
p5027
aVSheldon"
p5028
aV(Big
p5029
aVBang
p5030
aVTheory)
p5031
aV#banterinell
p5032
aVRT
p5033
aV@KKinVogue:
p5034
aVGot
p5035
aVmy
p5036
aVBig
p5037
aVBang
p5038
aVtickets!!
p5039
aVSuper
p5040
aVexcited!
p5041
aV*smashsmash*
p5042
aVBest
p5043
aVBig
p5044
aVBang
p5045
aVmeme
p5046
aVever!!
p5047
aVhttp://t.co/qH2kIeFp
p5048
aVGOT
p5049
aVMY
p5050
aVBIG
p5051
aVBANG
p5052
aVTICKETS,
p5053
aVTHANKYOU
p5054
aV@kennioo
p5055
aV&lt;333333
p5056
aV\U0001f618\U0001f618
p5057
aV@CatchMe_OnFire
p5058
aVOfficial
p5059
aVCrown
p5060
aVLightsticks
p5061
aV-
aV1200,
p5062
aVBig
p5063
aVBang
p5064
aVBling
p5065
aVBling
p5066
aVshirt
p5067
aV-
aV1300,
p5068
aVShirt
p5069
aVwith
p5070
aVdate
p5071
aVof
p5072
aVtour
p5073
aV-
aV1200,
p5074
aVAlive
p5075
aVLightsticks
p5076
aV-800
p5077
aVI
aVwant
p5078
aVto
p5079
aVwatch
p5080
aVbig
p5081
aVbang
p5082
aVlater
p5083
aV@Realtaeyang
p5084
aVIt
p5085
aVall
p5086
aVstarted
p5087
aVwith
p5088
aVthe
p5089
aVbig
p5090
aVbang..BANG
p5091
aVThe
p5092
aVBig
p5093
aVBang
p5094
aVTheory
p5095
aV&lt;3
p5096
aVCOLOR
p5097
aVOF
p5098
aVTHE
p5099
aVDAY:
p5100
aVYELLOOOOW
p5101
aV:))))))
p5102
aV#yellow
p5103
aV#color
p5104
aV#smile
p5105
aV#VIP
p5106
aV#bigbang
p5107
aV#big
p5108
aV#bang
p5109
aV#proud
p5110
aV#haha
p5111
aV#love
p5112
aV#bias
p5113
aVhttp://t.co/JBeT5bvG
p5114
aVBig
p5115
aVBang
p5116
aVAlive
p5117
aVConcert
p5118
aVPhilippines
p5119
aVin
p5120
aVa
aVfew
p5121
aVhours.
p5122
aV@malaking_ttik_O
p5123
aVThank
p5124
aVyou
p5125
aVso
p5126
aVmuch
p5127
aVpo
p5128
aVfor
p5129
aVthe
p5130
aVfree
p5131
aVBig
p5132
aVBang
p5133
aVtickets!
p5134
aV:D
p5135
aV@Shezza_paw
p5136
aVi
aVreally
p5137
aVwant
p5138
aVgds
p5139
aValbum
p5140
aVnow
p5141
aVomg
p5142
aVbut
p5143
aVi
aVjust
p5144
aVdont
p5145
aVhave
p5146
aVany
p5147
aVmoney,
p5148
aVbig
p5149
aVbang
p5150
aVis
p5151
aVdraining
p5152
aVmy
p5153
aVpockets
p5154
aVI'll
p5155
aVwrite
p5156
aVmy
p5157
aVdrama
p5158
aVevaluation...
p5159
aVAfter
p5160
aVthe
p5161
aVBig
p5162
aVBang
p5163
aVTheory.
p5164
aVKeep
p5165
aVhinting
p5166
aVto
p5167
aVmy
p5168
aVmum
p5169
aVabout
p5170
aVBig
p5171
aVBang
p5172
aVand
p5173
aVshe's
p5174
aVnot
p5175
aVgetting
p5176
aVthe
p5177
aVhint.
p5178
aVD:&lt;
p5179
aVThe
p5180
aVBig
p5181
aVBang
p5182
aVTheory
p5183
aVis
p5184
aVjust
p5185
aVso
p5186
aVgreat
p5187
aVHeading
p5188
aVto
p5189
aVSM
p5190
aVMOA
p5191
aVArena
p5192
aVfor
p5193
aVthe
p5194
aVBig
p5195
aVBang
p5196
aVAlive
p5197
aVWorld
p5198
aVTour
p5199
aVOMG!
p5200
aVMy
p5201
aVTop
p5202
aV3
aV#lastfm
p5203
aVArtists:
p5204
aVHanson
p5205
aV(33),
p5206
aVBIG
p5207
aVBANG
p5208
aV(30)
p5209
aV&amp;
p5210
aVPink
p5211
aVFloyd
p5212
aV(28)
p5213
aV#lastfm
p5214
aVhttp://t.co/AmUaXtOp
p5215
aV@krungy21
p5216
aVwonder
p5217
aVwhat
p5218
aVtime
p5219
aVwill
p5220
aVyou
p5221
aVbe
p5222
aVgoing
p5223
aVto
p5224
aVmoa
p5225
aVconcert
p5226
aVarena?
p5227
aVMaybe
p5228
aValong
p5229
aVwith
p5230
aVBig
p5231
aVBang?
p5232
aVBig
p5233
aVBang
p5234
aVtickets
p5235
aVbooked
p5236
aVXD
p5237
aV@Catheeka
p5238
aV@sqrt4izrainbows
p5239
aVJim
p5240
aVParsons
p5241
aVis
p5242
aVthe
p5243
aVbriliant
p5244
aVactor
p5245
aVwho
p5246
aVplays
p5247
aVthe
p5248
aVamazing
p5249
aVSheldon
p5250
aVCooper
p5251
aVin
p5252
aVThe
p5253
aVBig
p5254
aVBang
p5255
aVTheory
p5256
aV:)
p5257
aVRT
p5258
aV@flip_diddy_flip:
p5259
aVI'd
p5260
aVdo
p5261
aVnasty
p5262
aVnasty
p5263
aVthings
p5264
aVto
p5265
aVpenny
p5266
aVfrom
p5267
aVbig
p5268
aVbang
p5269
aVtheory
p5270
aVRT
p5271
aV@happeesy:
p5272
aVBig
p5273
aVBang
p5274
aVUpdate:
p5275
aVGA
p5276
aVSold
p5277
aVout
p5278
aVas
p5279
aVin,
p5280
aVeven
p5281
aVSRO
p5282
aVsold
p5283
aVout
p5284
aVThe
p5285
aVbig,
p5286
aVbig
p5287
aVbang
p5288
aVthe
p5289
aVreason
p5290
aVof
p5291
aVmy
p5292
aVlife.
p5293
aVNow
p5294
aVPlaying
p5295
aVon
p5296
aV@topkpoptv
p5297
aVRADIO:
p5298
aVBig
p5299
aVBang
p5300
aV-
aVLove
p5301
aVDust
p5302
aV::
p5303
aVListen
p5304
aV-&gt;
p5305
aVhttp://t.co/6mL51CiW
p5306
aVAt
p5307
aVMOA
p5308
aVfor
p5309
aVthe
p5310
aVBig
p5311
aVBang
p5312
aVconcert.
p5313
aVGates
p5314
aVabout
p5315
aVto
p5316
aVopen.
p5317
aVHuuuuuuuuge
p5318
aVcrowd!
p5319
aVAlways
p5320
aVseem
p5321
aVto
p5322
aVquote
p5323
aVbig
p5324
aVbang
p5325
aVtheory
p5326
aVin
p5327
aVgeneral
p5328
aVconversation
p5329
aVwithout
p5330
aVeven
p5331
aVrealising
p5332
aVT_T
p5333
aVBig
p5334
aVBang
p5335
aVConcert
p5336
aVlater.
p5337
aV:'(
p5338
aVvia
p5339
aV@anekayessmagz
p5340
aV-
aVHave
p5341
aVA
aVGood
p5342
aVTime
p5343
aVWith
p5344
aVBig
p5345
aVBang
p5346
aVhttp://t.co/mcwg0iSt
p5347
aV#YessOnline
p5348
aVvia
p5349
aV@anekayessmagz
p5350
aV-
aVHave
p5351
aVA
aVGood
p5352
aVTime
p5353
aVWith
p5354
aVBig
p5355
aVBang
p5356
aVhttp://t.co/RnsXn2WJ
p5357
aV#YessOnline
p5358
aVvia
p5359
aV@anekayessmagz
p5360
aV-
aVHave
p5361
aVA
aVGood
p5362
aVTime
p5363
aVWith
p5364
aVBig
p5365
aVBang
p5366
aVhttp://t.co/1f64GiDw
p5367
aV#YessOnline
p5368
aVGot
p5369
aVmy
p5370
aVBig
p5371
aVBang
p5372
aVtickets!!
p5373
aVSuper
p5374
aVexcited!
p5375
aV*smashsmash*
p5376
aVRT
p5377
aV@Alyayaaaa:
p5378
aVRICH.
p5379
aVYG
p5380
aVIS
p5381
aVSUPER
p5382
aVRICH
p5383
aVTHIS
p5384
aVYEAR.
p5385
aV4
aVOF
p5386
aVHIS
p5387
aVARTISTS
p5388
aVMAKE
p5389
aVA
aVCOMEBACK
p5390
aVTHIS
p5391
aVYEAR.
p5392
aVBIG
p5393
aVBANG,2NE1,PSY,EPIK
p5394
aVHIGH.
p5395
aVWOW
p5396
aVRT
p5397
aV@RyanCartwright:
p5398
aVSo
p5399
aVmuch
p5400
aVfun
p5401
aVon
p5402
aVBig
p5403
aVBang
p5404
aVtoday!
p5405
aVRemember
p5406
aVto
p5407
aVvote
p5408
aVfor
p5409
aVObama
p5410
aVbecause
p5411
aVthe
p5412
aVother
p5413
aVguy
p5414
aVis
p5415
aVbat
p5416
aVshit
p5417
aVcrazy.
p5418
aV#MagicUnderpantMormonHomophobeAntiWoman
p5419
aVx
aVRT
p5420
aV@tgosingtian:
p5421
aVGetting
p5422
aVready
p5423
aVwith
p5424
aVmy
p5425
aVbadass
p5426
aVglitters,
p5427
aVstuds
p5428
aVand
p5429
aVcrosses
p5430
aVfor
p5431
aVBIG
p5432
aVBANG!
p5433
aVBut
p5434
aVwith
p5435
aVkulot
p5436
aVhair.
p5437
aVLulz
p5438
aVRT
p5439
aV@RyanCartwright:
p5440
aVSo
p5441
aVmuch
p5442
aVfun
p5443
aVon
p5444
aVBig
p5445
aVBang
p5446
aVtoday!
p5447
aVRemember
p5448
aVto
p5449
aVvote
p5450
aVfor
p5451
aVObama
p5452
aVbecause
p5453
aVthe
p5454
aVother
p5455
aVguy
p5456
aVis
p5457
aVbat
p5458
aVshit
p5459
aVcrazy.
p5460
aV#MagicUnderpantMormonHomophobeAntiWoman
p5461
aVx
aVOMG!
p5462
aVToday
p5463
aVis
p5464
aVthe
p5465
aVBig
p5466
aVBang
p5467
aVConcert.
p5468
aV:(
p5469
aVRT
p5470
aVif
p5471
aVyou
p5472
aVlove
p5473
aVBig
p5474
aVBang
p5475
aV@BossTQ
p5476
aVhaha
p5477
aVwow!
p5478
aVone
p5479
aVday
p5480
aVhopefully
p5481
aV&gt;,&lt;"
p5482
aVbut
p5483
aVfor
p5484
aVnow
p5485
aVpeople
p5486
aVwill
p5487
aVbe
p5488
aVhyped
p5489
aVto
p5490
aVsee
p5491
aVBig
p5492
aVBang
p5493
aVand
p5494
aVnot
p5495
aVme
p5496
aV-_-"
p5497
aVhaha
p5498
aVyou've
p5499
aVmade
p5500
aVme
p5501
aVmega
p5502
aVhappy!
p5503
aV:D
p5504
aVI
aVliked
p5505
aVa
aV@YouTube
p5506
aVvideo
p5507
aVhttp://t.co/xFiqEq6W
p5508
aVThe
p5509
aVBig
p5510
aVBang
p5511
aVTheory
p5512
aV-
aVALL
p5513
aVBLOOPERS
p5514
aV-
aVSeasons
p5515
aV1
aV-
aV5
aVVoting
p5516
aVfor
p5517
aVbest
p5518
aVglobal
p5519
aVmale
p5520
aVgroup
p5521
aVfor
p5522
aVMAMA.
p5523
aVConfuse
p5524
aVnak
p5525
aVpilih
p5526
aVBig
p5527
aVBang
p5528
aVor
p5529
aVSuJu.
p5530
aVOMG.
p5531
aVBIG
p5532
aVBANG
p5533
aVTICKETS.
p5534
aVOMG.
p5535
aVRT
p5536
aV@PussyMagnetHaz:
p5537
aV"The
p5538
aVbig
p5539
aVbang
p5540
aVtheory
p5541
aVis
p5542
aVstupid"
p5543
aVhttp://t.co/xYU9XZte
p5544
aVRT
p5545
aV@allkpop:
p5546
aV\u201cGangnam
p5547
aVStyle\u201d
p5548
aVMV
p5549
aVchild
p5550
aVstar
p5551
aVHwang
p5552
aVMin
p5553
aVWoo
p5554
aVconfesses
p5555
aVhe
p5556
aVpreviously
p5557
aVliked
p5558
aVBig
p5559
aVBang
p5560
aVmore
p5561
aVthan
p5562
aVPsy
p5563
aVhttp://t.co/qvOaZXWp
p5564
aV@UKBigBang
p5565
aVWohooooo
p5566
aVSOOO
p5567
aVHAPPY,
p5568
aVgot
p5569
aVthe
p5570
aVtickets
p5571
aVfor
p5572
aVUK
p5573
aVBig
p5574
aVBang
p5575
aVconcert
p5576
aV:DDD
p5577
aVRT
p5578
aV@fatihahfatihah:
p5579
aV#IAdmitThat
p5580
aVI
aVcouldn't
p5581
aVfind
p5582
aVany
p5583
aVK-Pop
p5584
aVgroups
p5585
aVthat
p5586
aVare
p5587
aVawesome
p5588
aVas
p5589
aVBig
p5590
aVBang.
p5591
aV#swag
p5592
aV#daebak
p5593
aV#saranghaeBigBang
p5594
aVSana
p5595
aVnasa
p5596
aVbig
p5597
aVbang
p5598
aVconcert
p5599
aVako
p5600
aVngaun.
p5601
aVNot
p5602
aVbecause
p5603
aVi
aVam
p5604
aVa
aVfan.
p5605
aVI
aVjust
p5606
aVwanna
p5607
aVexperience
p5608
aVthw
p5609
aVquality
p5610
aVYG
p5611
aVconcert.
p5612
aVimma
p5613
aVshoot
p5614
aVbig
p5615
aVbang
p5616
aVbrains
p5617
aVout
p5618
aV(:
p5619
aV@SamHandwich92
p5620
aVSam
p5621
aVobba
p5622
aVare
p5623
aVyou
p5624
aVgoing
p5625
aVdown
p5626
aVto
p5627
aVLondon
p5628
aVto
p5629
aVsee
p5630
aVbig
p5631
aVbang?
p5632
aVHehe
p5633
aVthe
p5634
aVfeeling
p5635
aVwhen
p5636
aVbig
p5637
aVbang
p5638
aVis
p5639
aVhere
p5640
aVand
p5641
aVwill
p5642
aVhave
p5643
aVtheir
p5644
aVconcert
p5645
aVlater
p5646
aVand
p5647
aVyour
p5648
aVnot
p5649
aVthere
p5650
aVto
p5651
aVwatch
p5652
aVTT_TT
p5653
aV#BIGBANG!
p5654
aV@planetjedward
p5655
aVYou're
p5656
aVso
p5657
aVgood
p5658
aVsingers!!!
p5659
aVbtw
p5660
aVdo
p5661
aVyou
p5662
aVwant
p5663
aVto
p5664
aVgo
p5665
aVto
p5666
aVthe
p5667
aVbig
p5668
aVbang
p5669
aVconcert
p5670
aVwith
p5671
aVme??
p5672
aVIt's
p5673
aVin
p5674
aVLondon
p5675
aVon
p5676
aVthe
p5677
aV15th
p5678
aVof
p5679
aVDecember!!
p5680
aV\u2665
aV\u201cGangnam
p5681
aVStyle\u201d
p5682
aVMV
p5683
aVchild
p5684
aVstar
p5685
aVHwang
p5686
aVMin
p5687
aVWoo
p5688
aVconfesses
p5689
aVhe
p5690
aVpreviously
p5691
aVliked
p5692
aVBig
p5693
aVBang
p5694
aVmore
p5695
aVthan
p5696
aVPsy
p5697
aVhttp://t.co/zUnwMXEu
p5698
aVvia
p5699
aV@allkpop
p5700
aVBig
p5701
aVBang's
p5702
aVconcert
p5703
aV&gt;&gt;&gt;&gt;
p5704
aVRT
p5705
aV@topkpoptv:
p5706
aVNow
p5707
aVPlaying
p5708
aVon
p5709
aV@topkpoptv
p5710
aVRADIO:
p5711
aVBig
p5712
aVBang
p5713
aV-
aVMs.
p5714
aVLiar
p5715
aV::
p5716
aVListen
p5717
aV-&gt;
p5718
aVhttp://t.co/6mL51CiW
p5719
aVI
aVliked
p5720
aVa
aV@YouTube
p5721
aVvideo
p5722
aVhttp://t.co/gqda1ti1
p5723
aVGame
p5724
aVNight
p5725
aV-
aVPictionary
p5726
aV(Guys
p5727
aVvs
p5728
aVGirls)
p5729
aV~
aVThe
p5730
aVBig
p5731
aVBang
p5732
aVTheory
p5733
aV~
aVRT
p5734
aV@stylesuzi:
p5735
aVeeee
p5736
aVstill
p5737
aVcan't
p5738
aVbelieve
p5739
aVBig
p5740
aVBang
p5741
aVare
p5742
aVcoming
p5743
aVto
p5744
aVLondon!
p5745
aVThe
p5746
aVonly
p5747
aVkpop
p5748
aVboy
p5749
aVband
p5750
aVI
aVam
p5751
aVa
aVfan
p5752
aVof!
p5753
aV*fangirl
p5754
aVscream*
p5755
aVRT
p5756
aV@Kpopers_ngakak:
p5757
aV\u2611
aVBig
p5758
aVBang
p5759
aV(VIP):
p5760
aVVIP
p5761
aVstands
p5762
aVfor
p5763
aV\u201cVery
p5764
aVImportant
p5765
aVPerson\u201d.
p5766
aVBig
p5767
aVBang
p5768
aVfolder..
p5769
aVMegan's
p5770
aVhttp://t.co/H8a2zAWN
p5771
aVMy
p5772
aVtimeline
p5773
aVis
p5774
aVcrazy!!!!!
p5775
aVFilled
p5776
aVwith
p5777
aV2PM,
p5778
aVJay
p5779
aVupdates
p5780
aVthen
p5781
aVBig
p5782
aVBang
p5783
aVconcert
p5784
aVfor
p5785
aVtonight
p5786
aVhahaha!
p5787
aVRT
p5788
aV@apriltsang:
p5789
aVI
aVHAS
p5790
aVGOT
p5791
aVMY
p5792
aVTICKETS
p5793
aVFOR
p5794
aVBIG
p5795
aVBANG!!!!!!!!!
p5796
aV:)
p5797
aVOHYEAH.
p5798
aV#bigbang
p5799
aV#galaxytour
p5800
aVRT
p5801
aV@SciGeeks:
p5802
aV#nqt
p5803
aV#physics
p5804
aVHow
p5805
aVwere
p5806
aVknow
p5807
aVabout
p5808
aVthe
p5809
aVbig
p5810
aVbang.
p5811
aVRedshift
p5812
aVexplained!
p5813
aVhttps://t.co/Q5tVG287
p5814
aVRT
p5815
aV@Kpopers_ngakak:
p5816
aV\u2611
aVBig
p5817
aVBang
p5818
aV(VIP):
p5819
aVVIP
p5820
aVstands
p5821
aVfor
p5822
aV\u201cVery
p5823
aVImportant
p5824
aVPerson\u201d.
p5825
aVi
aVreally
p5826
aVwanna
p5827
aVgo
p5828
aVsee
p5829
aVbig
p5830
aVbang,
p5831
aVbut
p5832
aVi
aVdon't
p5833
aVknow
p5834
aVif
p5835
aVi
aVhave
p5836
aVenough
p5837
aVmoney
p5838
aVfor
p5839
aVa
aVticket
p5840
aV:(
p5841
aVRT
p5842
aV@PLANET2NE1:
p5843
aV[YG
p5844
aVFAMILY/COVER]
p5845
aVOMG
p5846
aVLYDIA
p5847
aVPAEK!!
p5848
aVCovering
p5849
aVBig
p5850
aVBang's
p5851
aVBad
p5852
aVBoy
p5853
aVhttp://t.co/ddjBGLYj
p5854
aV*I
p5855
aVlove
p5856
aVthis
p5857
aVso
p5858
aVmuch.
p5859
aVHer
p5860
aVvoice
p5861
aVis
p5862
aVgorgeous!!!*
p5863
aV\u2665\u2665\u2665
p5864
aVEveryone
p5865
aVget
p5866
aVyour
p5867
aVBig
p5868
aVBang
p5869
aVtickets?
p5870
aV:)
p5871
aVNow
p5872
aVthats
p5873
aVmadness.
p5874
aVRT
p5875
aV@shouwta:
p5876
aVprince
p5877
aVbought
p5878
aVtickets
p5879
aVto
p5880
aVbig
p5881
aVbang....
p5882
aVAND
p5883
aVHE'S
p5884
aVNOT
p5885
aVGOING
p5886
aVWOW
p5887
aVFANTASTIC
p5888
aVBABY
p5889
aVI
aVliked
p5890
aVa
aV@YouTube
p5891
aVvideo
p5892
aVfrom
p5893
aV@iamrythian
p5894
aVhttp://t.co/bvJsXDFl
p5895
aVMinecraft
p5896
aV-
aVThe
p5897
aVTekkit
p5898
aVAdventure
p5899
aV#26
p5900
aV-
aVThe
p5901
aVBig
p5902
aVBang,
p5903
aVPart
p5904
aVII
p5905
aVI
aVliked
p5906
aVa
aV@YouTube
p5907
aVvideo
p5908
aVhttp://t.co/bl4skLyx
p5909
aVDance
p5910
aVTutorial
p5911
aV-
aVBig
p5912
aVBang
p5913
aV-
aVLies
p5914
aVRT
p5915
aV@PLANET2NE1:
p5916
aV[YG
p5917
aVFAMILY/COVER]
p5918
aVOMG
p5919
aVLYDIA
p5920
aVPAEK!!
p5921
aVCovering
p5922
aVBig
p5923
aVBang's
p5924
aVBad
p5925
aVBoy
p5926
aVhttp://t.co/ddjBGLYj
p5927
aV*I
p5928
aVlove
p5929
aVthis
p5930
aVso
p5931
aVmuch.
p5932
aVHer
p5933
aVvoice
p5934
aVis
p5935
aVgorgeous!!!*
p5936
aV\u2665\u2665\u2665
p5937
aVSuper
p5938
aVexcited
p5939
aV@Nezgal93
p5940
aVgot
p5941
aVus
p5942
aV&amp;
p5943
aV@Sparky_Says
p5944
aVtickets
p5945
aVfor
p5946
aVBIG
p5947
aVBANG
p5948
aVfor
p5949
aVDecember....Cannot
p5950
aVwait
p5951
aVgonna
p5952
aVbe
p5953
aVepic
p5954
aV!!!!!!
p5955
aVExclusive
p5956
aVVideo:
p5957
aVGet
p5958
aVa
aVFirst
p5959
aVLook
p5960
aVat
p5961
aVThe
p5962
aVBig
p5963
aVBang
p5964
aVTheory\u2019s
p5965
aVIncredible
p5966
aVHalloween
p5967
aVSmurftacular!
p5968
aVhttp://t.co/aUiF1pzi
p5969
aVvia
p5970
aV@TVLineNews
p5971
aVRT
p5972
aV@RyanCartwright:
p5973
aVSo
p5974
aVmuch
p5975
aVfun
p5976
aVon
p5977
aVBig
p5978
aVBang
p5979
aVtoday!
p5980
aVRemember
p5981
aVto
p5982
aVvote
p5983
aVfor
p5984
aVObama
p5985
aVbecause
p5986
aVthe
p5987
aVother
p5988
aVguy
p5989
aVis
p5990
aVbat
p5991
aVshit
p5992
aVcrazy.
p5993
aV#MagicUnderpantMormonHomophobeAntiWoman
p5994
aVx
aVRT
p5995
aV@RyanCartwright:
p5996
aVSo
p5997
aVmuch
p5998
aVfun
p5999
aVon
p6000
aVBig
p6001
aVBang
p6002
aVtoday!
p6003
aVRemember
p6004
aVto
p6005
aVvote
p6006
aVfor
p6007
aVObama
p6008
aVbecause
p6009
aVthe
p6010
aVother
p6011
aVguy
p6012
aVis
p6013
aVbat
p6014
aVshit
p6015
aVcrazy.
p6016
aV#MagicUnderpantMormonHomophobeAntiWoman
p6017
aVx
aV@TempoChoiB_bot
p6018
aVAin't
p6019
aVNo
p6020
aVFun
p6021
aV-
aVBIG
p6022
aVBANG
p6023
aVOMG!!
p6024
aVyoure
p6025
aVgoing
p6026
aVthere?
p6027
aVEnjoy
p6028
aVthe
p6029
aVconcert
p6030
aVRT"@sari_chan:
p6031
aVGot
p6032
aVmy
p6033
aVBig
p6034
aVBang
p6035
aVtickets
p6036
aVso
p6037
aVhappy
p6038
aV^
aV^"
p6039
aVK-Pop's
p6040
aVTough
p6041
aVMaknae's!
p6042
aVhttp://t.co/RPFcCtTo
p6043
aVhttp://t.co/Tly9zFMC
p6044
aVK-Pop
p6045
aVIdol
p6046
aVMakeup
p6047
aVTrends:
p6048
aVGuys
p6049
aVWearing
p6050
aVMore
p6051
aVthan
p6052
aVJust
p6053
aVEyeliner
p6054
aVhttp://t.co/uuJ0GsD7
p6055
aVhttp://t.co/SutdEhzh
p6056
aVVote
p6057
aVBig
p6058
aVBang
p6059
aVand
p6060
aVYG
p6061
aVfamily....
p6062
aVHere...
p6063
aVHehe.
p6064
aVhttp://t.co/B7ZwQJij
p6065
aV#WhatILoveTheMost
p6066
aVBig
p6067
aVbang
p6068
aVRT
p6069
aV@allkpop:
p6070
aV\u201cGangnam
p6071
aVStyle\u201d
p6072
aVMV
p6073
aVchild
p6074
aVstar
p6075
aVHwang
p6076
aVMin
p6077
aVWoo
p6078
aVconfesses
p6079
aVhe
p6080
aVpreviously
p6081
aVliked
p6082
aVBig
p6083
aVBang
p6084
aVmore
p6085
aVthan
p6086
aVPsy
p6087
aVhttp://t.co/qvOaZXWp
p6088
aVRT
p6089
aV@dprincessjas:
p6090
aV@IBGDRGN
p6091
aV@realtaeyang
p6092
aVAUSTRALIA
p6093
aVNEEDS
p6094
aVBIG
p6095
aVBANG
p6096
aV&amp;
p6097
aVYG
p6098
aVFAMILY!
p6099
aV#BIGBANGALIVEGALAXYTOURAUSTRALIA
p6100
aVor
p6101
aV#YGFAMILYCONCERTDOWNUNDER
p6102
aVplease?
p6103
aV:(
p6104
aVRT
p6105
aV@RyanCartwright:
p6106
aVSo
p6107
aVmuch
p6108
aVfun
p6109
aVon
p6110
aVBig
p6111
aVBang
p6112
aVtoday!
p6113
aVRemember
p6114
aVto
p6115
aVvote
p6116
aVfor
p6117
aVObama
p6118
aVbecause
p6119
aVthe
p6120
aVother
p6121
aVguy
p6122
aVis
p6123
aVbat
p6124
aVshit
p6125
aVcrazy.
p6126
aV#MagicUnderpantMormonHomophobeAntiWoman
p6127
aVx
aV@HazyBoo
p6128
aVwhat
p6129
aVBig
p6130
aVBang
p6131
aVthe
p6132
aVs.k
p6133
aVband
p6134
aVor
p6135
aVthe
p6136
aVshow???
p6137
aVunreserved
p6138
aVstanding
p6139
aVtickets
p6140
aVfor
p6141
aVbig
p6142
aVbang
p6143
aVare
p6144
aV99
p6145
aVi'm
p6146
aVtoo
p6147
aVpoor
p6148
aVfor
p6149
aVthis
p6150
aVshit
p6151
aVGonna
p6152
aVmiss
p6153
aVthe
p6154
aVgreatest
p6155
aVconcert
p6156
aVof
p6157
aVall
p6158
aVtime.
p6159
aVBig
p6160
aVBang.
p6161
aVRT
p6162
aV@RyanCartwright:
p6163
aVSo
p6164
aVmuch
p6165
aVfun
p6166
aVon
p6167
aVBig
p6168
aVBang
p6169
aVtoday!
p6170
aVRemember
p6171
aVto
p6172
aVvote
p6173
aVfor
p6174
aVObama
p6175
aVbecause
p6176
aVthe
p6177
aVother
p6178
aVguy
p6179
aVis
p6180
aVbat
p6181
aVshit
p6182
aVcrazy.
p6183
aV#MagicUnderpantMormonHomophobeAntiWoman
p6184
aVx
aVIdec
p6185
aVif
p6186
aVseats
p6187
aVare
p6188
aVcrap
p6189
aVbc
p6190
aVbig
p6191
aVbang
p6192
aVyo,
p6193
aVits
p6194
aVgonna
p6195
aVbe
p6196
aVa
aVgood
p6197
aVnight
p6198
aVno
p6199
aVmatter
p6200
aVwot
p6201
aV#nqt
p6202
aV#physics
p6203
aVHow
p6204
aVwere
p6205
aVknow
p6206
aVabout
p6207
aVthe
p6208
aVbig
p6209
aVbang.
p6210
aVRedshift
p6211
aVexplained!
p6212
aVhttps://t.co/Q5tVG287
p6213
aV[Exclusive
p6214
aVGiveaway]
p6215
aVUltimate
p6216
aVBig
p6217
aVBang
p6218
aVAlive
p6219
aVGalaxy
p6220
aVTour
p6221
aV2012!
p6222
aVhttp://t.co/WsITtSAe
p6223
aVvia
p6224
aV@allkpop
p6225
aV#IAdmitThat
p6226
aVI
aVcouldn't
p6227
aVfind
p6228
aVany
p6229
aVK-Pop
p6230
aVgroups
p6231
aVthat
p6232
aVare
p6233
aVawesome
p6234
aVas
p6235
aVBig
p6236
aVBang.
p6237
aV#swag
p6238
aV#daebak
p6239
aV#saranghaeBigBang
p6240
aVRT
p6241
aV@RyanCartwright:
p6242
aVSo
p6243
aVmuch
p6244
aVfun
p6245
aVon
p6246
aVBig
p6247
aVBang
p6248
aVtoday!
p6249
aVRemember
p6250
aVto
p6251
aVvote
p6252
aVfor
p6253
aVObama
p6254
aVbecause
p6255
aVthe
p6256
aVother
p6257
aVguy
p6258
aVis
p6259
aVbat
p6260
aVshit
p6261
aVcrazy.
p6262
aV#MagicUnderpantMormonHomophobeAntiWoman
p6263
aVx
aV\u201c@marthapido:
p6264
aVand
p6265
aVthe
p6266
aVri
p6267
aVquestioned
p6268
aVhow
p6269
aVthe
p6270
aVfans
p6271
aVfrom
p6272
aVmany
p6273
aVcountries
p6274
aVknow
p6275
aVabout
p6276
aVBig
p6277
aVBang
p6278
aV~
aVXD\u201d
p6279
aVRT
p6280
aV@RyanCartwright:
p6281
aVSo
p6282
aVmuch
p6283
aVfun
p6284
aVon
p6285
aVBig
p6286
aVBang
p6287
aVtoday!
p6288
aVRemember
p6289
aVto
p6290
aVvote
p6291
aVfor
p6292
aVObama
p6293
aVbecause
p6294
aVthe
p6295
aVother
p6296
aVguy
p6297
aVis
p6298
aVbat
p6299
aVshit
p6300
aVcrazy.
p6301
aV#MagicUnderpantMormonHomophobeAntiWoman
p6302
aVx
aVRT
p6303
aV@RyanCartwright:
p6304
aVSo
p6305
aVmuch
p6306
aVfun
p6307
aVon
p6308
aVBig
p6309
aVBang
p6310
aVtoday!
p6311
aVRemember
p6312
aVto
p6313
aVvote
p6314
aVfor
p6315
aVObama
p6316
aVbecause
p6317
aVthe
p6318
aVother
p6319
aVguy
p6320
aVis
p6321
aVbat
p6322
aVshit
p6323
aVcrazy.
p6324
aV#MagicUnderpantMormonHomophobeAntiWoman
p6325
aVx
aVBig
p6326
aVBang
p6327
aVAlive
p6328
aVTour
p6329
aVConcert
p6330
aVtonight
p6331
aV&lt;/3
p6332
aVdart
p6333
aVsa
p6334
aVheart
p6335
aVBig
p6336
aVimpacts
p6337
aVwere
p6338
aVBIG
p6339
aVBANG,
p6340
aVBLOCK
p6341
aVB,
p6342
aVand
p6343
aVB.A.P.
p6344
aVThese
p6345
aVartist
p6346
aVmake
p6347
aVtheir
p6348
aVown
p6349
aVstyle
p6350
aVof
p6351
aVmusic
p6352
aVand
p6353
aValways
p6354
aVchanges
p6355
aVwith
p6356
aVevery
p6357
aVcomeback.
p6358
aV@planetjedward
p6359
aVDO
p6360
aVYOU
p6361
aVWANT
p6362
aVTO
p6363
aVGO
p6364
aVTO
p6365
aVTHE
p6366
aVBIG
p6367
aVBANG
p6368
aVCONCERT
p6369
aVWITH
p6370
aVME???
p6371
aVIT'S
p6372
aVIN
p6373
aVLONDON
p6374
aVON
p6375
aVTHE
p6376
aV15TH
p6377
aVOF
p6378
aVDECEMBER!
p6379
aV\u2665
aVAT
p6380
aVMOA
p6381
aVALREADY!!!!
p6382
aVASDFGHJKL!!
p6383
aVBIG
p6384
aVBANG!!!!
p6385
aV&lt;333
p6386
aVRT
p6387
aV@RyanCartwright:
p6388
aVSo
p6389
aVmuch
p6390
aVfun
p6391
aVon
p6392
aVBig
p6393
aVBang
p6394
aVtoday!
p6395
aVRemember
p6396
aVto
p6397
aVvote
p6398
aVfor
p6399
aVObama
p6400
aVbecause
p6401
aVthe
p6402
aVother
p6403
aVguy
p6404
aVis
p6405
aVbat
p6406
aVshit
p6407
aVcrazy.
p6408
aV#MagicUnderpantMormonHomophobeAntiWoman
p6409
aVx
aVBeginning
p6410
aVthe
p6411
aVday
p6412
aVwith
p6413
aVBig
p6414
aVBang
p6415
aVand
p6416
aVFrasier
p6417
aV#yes
p6418
aVNew
p6419
aVbig
p6420
aVbang
p6421
aVtheory
p6422
aVgetting
p6423
aVeven
p6424
aVmore
p6425
aVfunny.
p6426
aVLove
p6427
aVthat
p6428
aVshow.
p6429
aVThe
p6430
aVBig
p6431
aVBang
p6432
aVTheory
p6433
aVSitcom
p6434
aV|
aVRedGage
p6435
aV-
aVhttp://t.co/ouguFpdP
p6436
aVvia
p6437
aVShareaholic
p6438
aVAnyone
p6439
aVhere
p6440
aVup
p6441
aVfor
p6442
aVBIG
p6443
aVBANG
p6444
aVin
p6445
aVLondon
p6446
aVor
p6447
aValready
p6448
aVbought
p6449
aVtickets?
p6450
aVStill
p6451
aVdeciding...
p6452
aVTicket
p6453
aVprices
p6454
aVare
p6455
aVgood!
p6456
aVAny
p6457
aVupdates
p6458
aVabout
p6459
aV#ALIVETOUR
p6460
aVng
p6461
aVBig
p6462
aVBang
p6463
aVdito
p6464
aVsa
p6465
aVPH?
p6466
aVRT
p6467
aV@RyanCartwright:
p6468
aVSo
p6469
aVmuch
p6470
aVfun
p6471
aVon
p6472
aVBig
p6473
aVBang
p6474
aVtoday!
p6475
aVRemember
p6476
aVto
p6477
aVvote
p6478
aVfor
p6479
aVObama
p6480
aVbecause
p6481
aVthe
p6482
aVother
p6483
aVguy
p6484
aVis
p6485
aVbat
p6486
aVshit
p6487
aVcrazy.
p6488
aV#MagicUnderpantMormonHomophobeAntiWoman
p6489
aVx
aV#nowplaying
p6490
aVBlue-Big
p6491
aVbang~
p6492
aVbig
p6493
aVbang!!
p6494
aV\uf60a
aV(@
p6495
aVMall
p6496
aVof
p6497
aVAsia
p6498
aVArena
p6499
aVw/
p6500
aV16
p6501
aVothers)
p6502
aVhttp://t.co/WFiSS95x
p6503
aV*sigh*
p6504
aVhow
p6505
aVlucky
p6506
aVare
p6507
aVthose
p6508
aVwho
p6509
aVwill
p6510
aVwatch
p6511
aVBig
p6512
aVBang's
p6513
aVconcert
p6514
aVtonight
p6515
aV&lt;/3
p6516
aV:'(
p6517
aVgoooosh,
p6518
aVi'm
p6519
aVgetting
p6520
aVemo
p6521
aVagain
p6522
aVRT
p6523
aV@RyanCartwright:
p6524
aVSo
p6525
aVmuch
p6526
aVfun
p6527
aVon
p6528
aVBig
p6529
aVBang
p6530
aVtoday!
p6531
aVRemember
p6532
aVto
p6533
aVvote
p6534
aVfor
p6535
aVObama
p6536
aVbecause
p6537
aVthe
p6538
aVother
p6539
aVguy
p6540
aVis
p6541
aVbat
p6542
aVshit
p6543
aVcrazy.
p6544
aV#MagicUnderpantMormonHomophobeAntiWoman
p6545
aVx
aVReason
p6546
aVI
aVunderstand
p6547
aVDoppler
p6548
aVeffect:
p6549
aVBig
p6550
aVBang
p6551
aVTheory
p6552
aV#procrastinationexcuses
p6553
aV@paudiazderivera
p6554
aVLalo
p6555
aVnaman
p6556
aVako.
p6557
aV:((
p6558
aVOmfg,
p6559
aVI'm
p6560
aVbreathing
p6561
aVthe
p6562
aVsame
p6563
aVair
p6564
aVwith
p6565
aVBig
p6566
aVBang.
p6567
aV:(
p6568
aVRT
p6569
aV@RyanCartwright:
p6570
aVSo
p6571
aVmuch
p6572
aVfun
p6573
aVon
p6574
aVBig
p6575
aVBang
p6576
aVtoday!
p6577
aVRemember
p6578
aVto
p6579
aVvote
p6580
aVfor
p6581
aVObama
p6582
aVbecause
p6583
aVthe
p6584
aVother
p6585
aVguy
p6586
aVis
p6587
aVbat
p6588
aVshit
p6589
aVcrazy.
p6590
aV#MagicUnderpantMormonHomophobeAntiWoman
p6591
aVx
aVSo
p6592
aVmuch
p6593
aVfun
p6594
aVon
p6595
aVBig
p6596
aVBang
p6597
aVtoday!
p6598
aVRemember
p6599
aVto
p6600
aVvote
p6601
aVfor
p6602
aVObama
p6603
aVbecause
p6604
aVthe
p6605
aVother
p6606
aVguy
p6607
aVis
p6608
aVbat
p6609
aVshit
p6610
aVcrazy.
p6611
aV#MagicUnderpantMormonHomophobeAntiWoman
p6612
aVx
aVRT
p6613
aV@stylesuzi:
p6614
aVeeee
p6615
aVstill
p6616
aVcan't
p6617
aVbelieve
p6618
aVBig
p6619
aVBang
p6620
aVare
p6621
aVcoming
p6622
aVto
p6623
aVLondon!
p6624
aVThe
p6625
aVonly
p6626
aVkpop
p6627
aVboy
p6628
aVband
p6629
aVI
aVam
p6630
aVa
aVfan
p6631
aVof!
p6632
aV*fangirl
p6633
aVscream*
p6634
aVSomeone
p6635
aVin
p6636
aVa
aVclass
p6637
aVof
p6638
aVmine
p6639
aVhas
p6640
aVa
aVjumper
p6641
aVof
p6642
aVthe
p6643
aVsoft
p6644
aVkitty
p6645
aVsong
p6646
aVfrom
p6647
aVBig
p6648
aVBang
p6649
aVTheory
p6650
aV#cringe
p6651
aVRT
p6652
aV@we7infinitize:
p6653
aVInfinite
p6654
aV3D
p6655
aVconcert
p6656
aVhas
p6657
aVmore
p6658
aVmovie
p6659
aVviewers
p6660
aVcompared
p6661
aVto
p6662
aVother
p6663
aVgroups'
p6664
aVmovies.
p6665
aVhttp://t.co/5P3uCY1v
p6666
aVRT
p6667
aV@itsAYEmazing:
p6668
aVBig
p6669
aVBang
p6670
aVConcert
p6671
aVtonight!!
p6672
aV#Nganga
p6673
aV&lt;/3
p6674
aVAyee
p6675
aVgot
p6676
aVmy
p6677
aVfamily
p6678
aVinto
p6679
aVThe
p6680
aVBig
p6681
aVBang
p6682
aVTheory.
p6683
aVAccept
p6684
aVClive...sigh.
p6685
aVBig
p6686
aVbang...
p6687
aV3more
p6688
aVdays
p6689
aVto
p6690
aVgo..
p6691
aVhttp://t.co/HAeDviFB
p6692
aVEarly
p6693
aVdinner
p6694
aVbefore
p6695
aVBig
p6696
aVBang's
p6697
aVAlive
p6698
aVGalaxy
p6699
aVTour
p6700
aVin
p6701
aVSM
p6702
aVMoA
p6703
aVArena
p6704
aV:)
p6705
aVyey!
p6706
aV(@
p6707
aVPepper
p6708
aVLunch
p6709
aVw/
p6710
aV2
aVothers)
p6711
aVhttp://t.co/N7e8r03t
p6712
aV#Amazon
p6713
aVUSA
p6714
aV:
aV#Mens
p6715
aVThe
p6716
aVBig
p6717
aVBang
p6718
aVTheory
p6719
aVSuper
p6720
aVVillain
p6721
aVT-shirt
p6722
aVby
p6723
aVRipple
p6724
aVJunction
p6725
aVhttp://t.co/yBZMQHdS
p6726
aV"Dr.
p6727
aVSheldon
p6728
aVCooper"
p6729
aVBig
p6730
aVBang
p6731
aVtalking
p6732
aVto
p6733
aVladies
p6734
aV-
aVGD:
p6735
aVHey
p6736
aVgirl,
p6737
aVwanna
p6738
aVride
p6739
aVmy
p6740
aVdragon?
p6741
aV;3
p6742
aV(success
p6743
aVrate:
p6744
aV80%)
p6745
aVDaesung:
p6746
aVHey
p6747
aVgirl,
p6748
aVle\u2026
p6749
aVhttp://t.co/CvbEJCPe
p6750
aVPhysicists
p6751
aVare
p6752
aVworking
p6753
aVon
p6754
aVthe
p6755
aVBig
p6756
aVBang,
p6757
aVand
p6758
aVone
p6759
aVday
p6760
aVthey
p6761
aVmay
p6762
aVor
p6763
aVmay
p6764
aVnot
p6765
aVsolve
p6766
aVit.
p6767
aVRichard
p6768
aVDawkins
p6769
aVAm
p6770
aVI
aVreally
p6771
aVpaying
p6772
aVa
aV100pounds
p6773
aVto
p6774
aVsee
p6775
aVbig
p6776
aVbang?
p6777
aVWhy
p6778
aVyes,
p6779
aVyes
p6780
aVI
aVam.
p6781
aVOff
p6782
aVto
p6783
aVSM
p6784
aVMOA
p6785
aVArena
p6786
aVto
p6787
aVwatch
p6788
aVBIG
p6789
aVBang's
p6790
aVconcert..yahoo!!
p6791
aVRT
p6792
aV@allkpop:
p6793
aV\u201cGangnam
p6794
aVStyle\u201d
p6795
aVMV
p6796
aVchild
p6797
aVstar
p6798
aVHwang
p6799
aVMin
p6800
aVWoo
p6801
aVconfesses
p6802
aVhe
p6803
aVpreviously
p6804
aVliked
p6805
aVBig
p6806
aVBang
p6807
aVmore
p6808
aVthan
p6809
aVPsy
p6810
aVhttp://t.co/qvOaZXWp
p6811
aVRT
p6812
aV@PLANET2NE1:
p6813
aV[YG
p6814
aVFAMILY/COVER]
p6815
aVOMG
p6816
aVLYDIA
p6817
aVPAEK!!
p6818
aVCovering
p6819
aVBig
p6820
aVBang's
p6821
aVBad
p6822
aVBoy
p6823
aVhttp://t.co/ddjBGLYj
p6824
aV*I
p6825
aVlove
p6826
aVthis
p6827
aVso
p6828
aVmuch.
p6829
aVHer
p6830
aVvoice
p6831
aVis
p6832
aVgorgeous!!!*
p6833
aV\u2665\u2665\u2665
p6834
aV@ItsChinkabell
p6835
aVOmg
p6836
aVI
aVlove
p6837
aVmy
p6838
aVcousin
p6839
aVso
p6840
aVmuch,
p6841
aVbest
p6842
aVbirthday
p6843
aVpresent
p6844
aVever
p6845
aV\u2764She
p6846
aVgot
p6847
aVus
p6848
aVBig
p6849
aVBang
p6850
aVtickets,
p6851
aVI
aVwant
p6852
aVto
p6853
aVcry
p6854
aV\U0001f62d
aVhttp://t.co/k8l7sMrH
p6855
aVNow
p6856
aVI'm
p6857
aVsure,
p6858
aVI
aVcan
p6859
aVhear
p6860
aVthe
p6861
aVfans'
p6862
aVcheers
p6863
aVfrom
p6864
aVour
p6865
aVhotel
p6866
aVroom.
p6867
aVHaha.
p6868
aVSee
p6869
aVyou
p6870
aVin
p6871
aVa
aVfew
p6872
aVhours,
p6873
aVBig
p6874
aVBang!
p6875
aVRT
p6876
aV@just_juliie:
p6877
aVOverheard:
p6878
aVBig
p6879
aVBang
p6880
aVtalking
p6881
aVto
p6882
aVladies
p6883
aV-
aVGD:
p6884
aVHey
p6885
aVgirl,
p6886
aVwanna
p6887
aVride
p6888
aVmy
p6889
aVdragon?
p6890
aV;3
p6891
aV(success
p6892
aVrate:
p6893
aV80%)
p6894
aVDaesung:...
p6895
aVhttp://t.co/DsxdRjxX
p6896
aVWhen
p6897
aVpeople
p6898
aVsaid
p6899
aVbig
p6900
aVbang
p6901
aVare
p6902
aVcoming
p6903
aVto
p6904
aVUK.
p6905
aVI
aVimmediately
p6906
aVthought
p6907
aVSheldon
p6908
aVCooper.
p6909
aV#Disappointed
p6910
aVIn
p6911
aVbed
p6912
aVall
p6913
aVcosy
p6914
aVwith
p6915
aVa
aVbowl
p6916
aVof
p6917
aVporridge
p6918
aVwatching
p6919
aVbig
p6920
aVbang
p6921
aVBig
p6922
aVBang
p6923
aVConcert
p6924
aVtonight!!
p6925
aV#Nganga
p6926
aV&lt;/3
p6927
aVRarely
p6928
aVwatch
p6929
aVlive
p6930
aVtv
p6931
aVnow,
p6932
aVuse
p6933
aVsky+
p6934
aV-
aVbiggest
p6935
aVspace
p6936
aVhogs?
p6937
aV-
aVBig
p6938
aVBang
p6939
aVTheory
p6940
aVand
p6941
aVSouth
p6942
aVPark!
p6943
aV#MySkyPlus
p6944
aVWhen
p6945
aVpeople
p6946
aVthink
p6947
aVyour
p6948
aVtalking
p6949
aVabout
p6950
aVBig
p6951
aVBang
p6952
aVtheory
p6953
aVwhen
p6954
aVyour
p6955
aVactually
p6956
aVtalking
p6957
aVabout
p6958
aVthe
p6959
aVKpop
p6960
aVband
p6961
aVBig
p6962
aVBang
p6963
aVRT
p6964
aV@happeesy:
p6965
aVBig
p6966
aVBang
p6967
aVUpdate:
p6968
aVGA
p6969
aVSold
p6970
aVout
p6971
aVas
p6972
aVin,
p6973
aVeven
p6974
aVSRO
p6975
aVsold
p6976
aVout
p6977
aVRT
p6978
aV@Elly4Kyu:
p6979
aVall
p6980
aVthe
p6981
aVpeople
p6982
aVgetting
p6983
aVbig
p6984
aVbang
p6985
aVtickets
p6986
aVtoday
p6987
aVon
p6988
aVo2
p6989
aVpriority
p6990
aVyou
p6991
aVare
p6992
aVlucky
p6993
aVhoes
p6994
aVRT
p6995
aV@dprincessjas:
p6996
aV@IBGDRGN
p6997
aV@realtaeyang
p6998
aVAUSTRALIA
p6999
aVNEEDS
p7000
aVBIG
p7001
aVBANG
p7002
aV&amp;
p7003
aVYG
p7004
aVFAMILY!
p7005
aV#BIGBANGALIVEGALAXYTOURAUSTRALIA
p7006
aVor
p7007
aV#YGFAMILYCONCERTDOWNUNDER
p7008
aVplease?
p7009
aV:(
p7010
aVWhat
p7011
aVwas
p7012
aVthe
p7013
aVbig
p7014
aVbang
p7015
aVlast
p7016
aVnight
p7017
aV...
p7018
aVI'm
p7019
aVstill
p7020
aVconfused
p7021
aVon
p7022
aVwhat
p7023
aVit
p7024
aVactually
p7025
aVwas
p7026
aV?x
p7027
aV#nowplaying
p7028
aVbig
p7029
aVbang
p7030
aV-
aVbad
p7031
aVboy
p7032
aV&lt;3
p7033
aVRT
p7034
aV@gdgdbabybabyy:
p7035
aVBig
p7036
aVBang
p7037
aVtalking
p7038
aVto
p7039
aVladies
p7040
aV-
aVGD:
p7041
aVHey
p7042
aVgirl,
p7043
aVwanna
p7044
aVride
p7045
aVmy
p7046
aVdragon?
p7047
aV;3
p7048
aV(success
p7049
aVrate:
p7050
aV80%)
p7051
aVDaesung:
p7052
aVHey
p7053
aVgirl,
p7054
aVle\u2026
p7055
aVhttp://t.co/eAPTqK86
p7056
aVRT
p7057
aV@we7infinitize:
p7058
aVInfinite
p7059
aV3D
p7060
aVconcert
p7061
aVhas
p7062
aVmore
p7063
aVmovie
p7064
aVviewers
p7065
aVcompared
p7066
aVto
p7067
aVother
p7068
aVgroups'
p7069
aVmovies.
p7070
aVhttp://t.co/5P3uCY1v
p7071
aVRT
p7072
aV@LndseyyCharm:
p7073
aVBIG
p7074
aVBANG
p7075
aVCONCERT
p7076
aVTONIGHT.....
p7077
aV:(((
p7078
aVRT
p7079
aV@Alyayaaaa:
p7080
aVRICH.
p7081
aVYG
p7082
aVIS
p7083
aVSUPER
p7084
aVRICH
p7085
aVTHIS
p7086
aVYEAR.
p7087
aV4
aVOF
p7088
aVHIS
p7089
aVARTISTS
p7090
aVMAKE
p7091
aVA
aVCOMEBACK
p7092
aVTHIS
p7093
aVYEAR.
p7094
aVBIG
p7095
aVBANG,2NE1,PSY,EPIK
p7096
aVHIGH.
p7097
aVWOW
p7098
aVRT
p7099
aV@Kpopers_ngakak:
p7100
aV\u2611
aVBig
p7101
aVBang
p7102
aV(VIP):
p7103
aVVIP
p7104
aVstands
p7105
aVfor
p7106
aV\u201cVery
p7107
aVImportant
p7108
aVPerson\u201d.
p7109
aVRT
p7110
aV@we7infinitize:
p7111
aVInfinite
p7112
aV3D
p7113
aVconcert
p7114
aVhas
p7115
aVmore
p7116
aVmovie
p7117
aVviewers
p7118
aVcompared
p7119
aVto
p7120
aVother
p7121
aVgroups'
p7122
aVmovies.
p7123
aVhttp://t.co/5P3uCY1v
p7124
aVRT
p7125
aV@happeesy:
p7126
aVBig
p7127
aVBang
p7128
aVUpdate:
p7129
aVGA
p7130
aVSold
p7131
aVout
p7132
aVas
p7133
aVin,
p7134
aVeven
p7135
aVSRO
p7136
aVsold
p7137
aVout
p7138
aV[Thai
p7139
aVSub]
p7140
aVBig
p7141
aVBang
p7142
aVon
p7143
aVFujiTV's
p7144
aVSakigake!
p7145
aVMusic
p7146
aVRanking
p7147
aVEight
p7148
aV-
aVhttp://t.co/aqYRWYqH
p7149
aVvia
p7150
aV@DailymotionUK
p7151
aVI
aVliked
p7152
aVa
aV@YouTube
p7153
aVvideo
p7154
aVhttp://t.co/JfG1FL9s
p7155
aVBig
p7156
aVBang
p7157
aV-
aVAlways
p7158
aVbeatbox
p7159
aV(CD
p7160
aVbreaks
p7161
aVin
p7162
aVthe
p7163
aVmiddle
p7164
aVof
p7165
aVthe
p7166
aVperformance)
p7167
aV@IBGDRGN
p7168
aV@realtaeyang
p7169
aVAUSTRALIA
p7170
aVNEEDS
p7171
aVBIG
p7172
aVBANG
p7173
aV&amp;
p7174
aVYG
p7175
aVFAMILY!
p7176
aV#BIGBANGALIVEGALAXYTOURAUSTRALIA
p7177
aVor
p7178
aV#YGFAMILYCONCERTDOWNUNDER
p7179
aVplease?
p7180
aV:(
p7181
aVLooking
p7182
aVover
p7183
aVthe
p7184
aVBig
p7185
aVBang
p7186
aVinfo
p7187
aVYG
p7188
aVsent
p7189
aVme
p7190
aV-
aVI
aVcan't
p7191
aVbelieve
p7192
aVKpop
p7193
aVartists
p7194
aVput
p7195
aVout
p7196
aVso
p7197
aVmany
p7198
aValbums
p7199
aVin
p7200
aVsuch
p7201
aVa
aVshort
p7202
aVtime!
p7203
aVhttp://t.co/KBDeFhmC
p7204
a.